   1               		.file	"maze.c"
   2               	__SREG__ = 0x3f
   3               	__SP_H__ = 0x3e
   4               	__SP_L__ = 0x3d
   5               	__CCP__  = 0x34
   6               	__tmp_reg__ = 0
   7               	__zero_reg__ = 1
  15               	.Ltext0:
  16               	.global	delay_us
  18               	delay_us:
  19               	.LFB6:
  20               	.LM1:
  21               	.LVL0:
  22               	/* prologue: function */
  23               	/* frame size = 0 */
  24 0000 AC01      		movw r20,r24
  25               	.LM2:
  26 0002 3091 0000 		lds r19,k
  27 0006 20E0      		ldi r18,lo8(0)
  28 0008 00C0      		rjmp .L2
  29               	.LVL1:
  30               	.L3:
  31               	.LM3:
  32 000a 2F5F      		subi r18,lo8(-(1))
  33 000c 3AE0      		ldi r19,lo8(10)
  34               	.LVL2:
  35               	.L2:
  36 000e 822F      		mov r24,r18
  37 0010 90E0      		ldi r25,lo8(0)
  38 0012 8417      		cp r24,r20
  39 0014 9507      		cpc r25,r21
  40 0016 00F0      		brlo .L3
  41 0018 3093 0000 		sts k,r19
  42 001c 2093 0000 		sts j,r18
  43               	/* epilogue start */
  44               	.LM4:
  45 0020 0895      		ret
  46               	.LFE6:
  48               	.global	delay_ns
  50               	delay_ns:
  51               	.LFB9:
  52               	.LM5:
  53               	.LVL3:
  54               	/* prologue: function */
  55               	/* frame size = 0 */
  56               	.LM6:
  57 0022 2091 0000 		lds r18,k
  58 0026 90E0      		ldi r25,lo8(0)
  59 0028 00C0      		rjmp .L6
  60               	.L7:
  61               	.LM7:
  62 002a 9F5F      		subi r25,lo8(-(1))
  63 002c 2BE0      		ldi r18,lo8(11)
  64               	.L6:
  65 002e 9817      		cp r25,r24
  66 0030 00F0      		brlo .L7
  67 0032 2093 0000 		sts k,r18
  68 0036 9093 0000 		sts j,r25
  69               	/* epilogue start */
  70               	.LM8:
  71 003a 0895      		ret
  72               	.LFE9:
  74               	.global	latch
  76               	latch:
  77               	.LFB8:
  78               	.LM9:
  79               	/* prologue: function */
  80               	/* frame size = 0 */
  81               	.LM10:
  82 003c AA98      		cbi 53-32,2
  83               	.LM11:
  84 003e 88EC      		ldi r24,lo8(-56)
  85 0040 0E94 0000 		call delay_ns
  86               	.LM12:
  87 0044 AA9A      		sbi 53-32,2
  88               	.LM13:
  89 0046 88EC      		ldi r24,lo8(-56)
  90 0048 0E94 0000 		call delay_ns
  91               	.LM14:
  92 004c AA98      		cbi 53-32,2
  93               	/* epilogue start */
  94               	.LM15:
  95 004e 0895      		ret
  96               	.LFE8:
  98               	.global	lcd_cmd
 100               	lcd_cmd:
 101               	.LFB10:
 102               	.LM16:
 103               	.LVL4:
 104 0050 0F93      		push r16
 105 0052 1F93      		push r17
 106               	/* prologue: function */
 107               	/* frame size = 0 */
 108 0054 082F      		mov r16,r24
 109               	.LM17:
 110 0056 85B3      		in r24,53-32
 111               	.LVL5:
 112 0058 887F      		andi r24,lo8(-8)
 113 005a 85BB      		out 53-32,r24
 114               	.LM18:
 115 005c 802F      		mov r24,r16
 116 005e 807F      		andi r24,lo8(-16)
 117 0060 85BB      		out 53-32,r24
 118               	.LM19:
 119 0062 0E94 0000 		call latch
 120               	.LM20:
 121 0066 10E0      		ldi r17,lo8(0)
 122               	.LVL6:
 123 0068 0F70      		andi r16,lo8(15)
 124 006a 1070      		andi r17,hi8(15)
 125               	.LVL7:
 126 006c 84E0      		ldi r24,4
 127 006e 000F      	1:	lsl r16
 128 0070 111F      		rol r17
 129 0072 8A95      		dec r24
 130 0074 01F4      		brne 1b
 131               	.LVL8:
 132 0076 05BB      		out 53-32,r16
 133               	.LM21:
 134 0078 0E94 0000 		call latch
 135               	/* epilogue start */
 136               	.LM22:
 137 007c 1F91      		pop r17
 138               	.LVL9:
 139 007e 0F91      		pop r16
 140               	.LVL10:
 141 0080 0895      		ret
 142               	.LFE10:
 144               	.global	lcd_char
 146               	lcd_char:
 147               	.LFB11:
 148               	.LM23:
 149               	.LVL11:
 150 0082 1F93      		push r17
 151               	/* prologue: function */
 152               	/* frame size = 0 */
 153 0084 182F      		mov r17,r24
 154               	.LM24:
 155 0086 81E0      		ldi r24,lo8(1)
 156               	.LVL12:
 157 0088 85BB      		out 53-32,r24
 158               	.LM25:
 159 008a 15BA      		out 53-32,__zero_reg__
 160               	.LM26:
 161 008c 812F      		mov r24,r17
 162 008e 807F      		andi r24,lo8(-16)
 163 0090 8160      		ori r24,lo8(1)
 164 0092 85BB      		out 53-32,r24
 165               	.LM27:
 166 0094 0E94 0000 		call latch
 167               	.LM28:
 168 0098 1295      		swap r17
 169 009a 107F      		andi r17,lo8(-16)
 170 009c 1160      		ori r17,lo8(1)
 171 009e 15BB      		out 53-32,r17
 172               	.LM29:
 173 00a0 0E94 0000 		call latch
 174               	/* epilogue start */
 175               	.LM30:
 176 00a4 1F91      		pop r17
 177               	.LVL13:
 178 00a6 0895      		ret
 179               	.LFE11:
 181               	.global	lcd_string
 183               	lcd_string:
 184               	.LFB12:
 185               	.LM31:
 186               	.LVL14:
 187 00a8 EF92      		push r14
 188 00aa FF92      		push r15
 189 00ac 1F93      		push r17
 190 00ae CF93      		push r28
 191 00b0 DF93      		push r29
 192               	/* prologue: function */
 193               	/* frame size = 0 */
 194 00b2 7C01      		movw r14,r24
 195               	.LM32:
 196 00b4 81E0      		ldi r24,lo8(1)
 197               	.LVL15:
 198 00b6 85BB      		out 53-32,r24
 199               	.LM33:
 200 00b8 15BA      		out 53-32,__zero_reg__
 201 00ba 10E0      		ldi r17,lo8(0)
 202               	.LVL16:
 203 00bc 00C0      		rjmp .L16
 204               	.L18:
 205               	.LM34:
 206 00be 1031      		cpi r17,lo8(16)
 207 00c0 01F4      		brne .L17
 208               	.LM35:
 209 00c2 80EC      		ldi r24,lo8(-64)
 210 00c4 0E94 0000 		call lcd_cmd
 211               	.L17:
 212               	.LM36:
 213 00c8 8881      		ld r24,Y
 214 00ca 807F      		andi r24,lo8(-16)
 215 00cc 8160      		ori r24,lo8(1)
 216 00ce 85BB      		out 53-32,r24
 217               	.LM37:
 218 00d0 0E94 0000 		call latch
 219               	.LM38:
 220 00d4 8881      		ld r24,Y
 221 00d6 8295      		swap r24
 222 00d8 807F      		andi r24,lo8(-16)
 223 00da 8160      		ori r24,lo8(1)
 224 00dc 85BB      		out 53-32,r24
 225               	.LM39:
 226 00de 0E94 0000 		call latch
 227               	.LM40:
 228 00e2 1F5F      		subi r17,lo8(-(1))
 229               	.L16:
 230               	.LM41:
 231 00e4 E701      		movw r28,r14
 232 00e6 C10F      		add r28,r17
 233 00e8 D11D      		adc r29,__zero_reg__
 234 00ea 8881      		ld r24,Y
 235 00ec 8823      		tst r24
 236 00ee 01F4      		brne .L18
 237               	/* epilogue start */
 238               	.LM42:
 239 00f0 DF91      		pop r29
 240 00f2 CF91      		pop r28
 241 00f4 1F91      		pop r17
 242               	.LVL17:
 243 00f6 FF90      		pop r15
 244 00f8 EF90      		pop r14
 245               	.LVL18:
 246 00fa 0895      		ret
 247               	.LFE12:
 249               	.global	lcd_showvalue
 251               	lcd_showvalue:
 252               	.LFB13:
 253               	.LM43:
 254               	.LVL19:
 255 00fc EF92      		push r14
 256 00fe FF92      		push r15
 257 0100 0F93      		push r16
 258 0102 1F93      		push r17
 259               	/* prologue: function */
 260               	/* frame size = 0 */
 261 0104 182F      		mov r17,r24
 262               	.LM44:
 263 0106 64E6      		ldi r22,lo8(100)
 264 0108 0E94 0000 		call __udivmodqi4
 265               	.LVL20:
 266 010c 482F      		mov r20,r24
 267               	.LM45:
 268 010e 282F      		mov r18,r24
 269               	.LVL21:
 270 0110 30E0      		ldi r19,lo8(0)
 271               	.LVL22:
 272 0112 8CE9      		ldi r24,lo8(-100)
 273 0114 9FEF      		ldi r25,hi8(-100)
 274 0116 289F      		mul r18,r24
 275 0118 7001      		movw r14,r0
 276 011a 299F      		mul r18,r25
 277 011c F00C      		add r15,r0
 278 011e 389F      		mul r19,r24
 279 0120 F00C      		add r15,r0
 280 0122 1124      		clr r1
 281 0124 C701      		movw r24,r14
 282 0126 810F      		add r24,r17
 283 0128 911D      		adc r25,__zero_reg__
 284 012a 6AE0      		ldi r22,lo8(10)
 285 012c 70E0      		ldi r23,hi8(10)
 286 012e 0E94 0000 		call __divmodhi4
 287 0132 062F      		mov r16,r22
 288               	.LM46:
 289 0134 842F      		mov r24,r20
 290 0136 805D      		subi r24,lo8(-(48))
 291 0138 0E94 0000 		call lcd_char
 292               	.LVL23:
 293               	.LM47:
 294 013c 802F      		mov r24,r16
 295 013e 805D      		subi r24,lo8(-(48))
 296 0140 0E94 0000 		call lcd_char
 297               	.LM48:
 298 0144 105D      		subi r17,lo8(-(48))
 299 0146 1E0D      		add r17,r14
 300 0148 86EF      		ldi r24,lo8(-10)
 301 014a 9FEF      		ldi r25,hi8(-10)
 302 014c 089F      		mul r16,r24
 303 014e 002D      		mov r16,r0
 304 0150 1124      		clr r1
 305 0152 802F      		mov r24,r16
 306 0154 810F      		add r24,r17
 307 0156 0E94 0000 		call lcd_char
 308               	/* epilogue start */
 309               	.LM49:
 310 015a 1F91      		pop r17
 311               	.LVL24:
 312 015c 0F91      		pop r16
 313 015e FF90      		pop r15
 314 0160 EF90      		pop r14
 315 0162 0895      		ret
 316               	.LFE13:
 318               	.global	lcd_showvalue1
 320               	lcd_showvalue1:
 321               	.LFB14:
 322               	.LM50:
 323               	.LVL25:
 324 0164 EF92      		push r14
 325 0166 FF92      		push r15
 326 0168 0F93      		push r16
 327 016a 1F93      		push r17
 328               	/* prologue: function */
 329               	/* frame size = 0 */
 330 016c 082F      		mov r16,r24
 331               	.LM51:
 332 016e 64E6      		ldi r22,lo8(100)
 333 0170 0E94 0000 		call __udivmodqi4
 334               	.LVL26:
 335 0174 90E0      		ldi r25,lo8(0)
 336 0176 2CE9      		ldi r18,lo8(-100)
 337 0178 3FEF      		ldi r19,hi8(-100)
 338 017a 829F      		mul r24,r18
 339 017c 7001      		movw r14,r0
 340 017e 839F      		mul r24,r19
 341 0180 F00C      		add r15,r0
 342 0182 929F      		mul r25,r18
 343 0184 F00C      		add r15,r0
 344 0186 1124      		clr r1
 345 0188 C701      		movw r24,r14
 346 018a 800F      		add r24,r16
 347 018c 911D      		adc r25,__zero_reg__
 348 018e 6AE0      		ldi r22,lo8(10)
 349 0190 70E0      		ldi r23,hi8(10)
 350 0192 0E94 0000 		call __divmodhi4
 351 0196 162F      		mov r17,r22
 352               	.LM52:
 353 0198 862F      		mov r24,r22
 354 019a 805D      		subi r24,lo8(-(48))
 355 019c 0E94 0000 		call lcd_char
 356               	.LM53:
 357 01a0 005D      		subi r16,lo8(-(48))
 358 01a2 0E0D      		add r16,r14
 359 01a4 86EF      		ldi r24,lo8(-10)
 360 01a6 9FEF      		ldi r25,hi8(-10)
 361 01a8 189F      		mul r17,r24
 362 01aa 102D      		mov r17,r0
 363 01ac 1124      		clr r1
 364 01ae 812F      		mov r24,r17
 365 01b0 800F      		add r24,r16
 366 01b2 0E94 0000 		call lcd_char
 367               	/* epilogue start */
 368               	.LM54:
 369 01b6 1F91      		pop r17
 370 01b8 0F91      		pop r16
 371               	.LVL27:
 372 01ba FF90      		pop r15
 373 01bc EF90      		pop r14
 374 01be 0895      		ret
 375               	.LFE14:
 377               	.global	lcd_gotoxy1
 379               	lcd_gotoxy1:
 380               	.LFB15:
 381               	.LM55:
 382               	.LVL28:
 383               	/* prologue: function */
 384               	/* frame size = 0 */
 385               	.LM56:
 386 01c0 8058      		subi r24,lo8(-(-128))
 387               	.LVL29:
 388 01c2 0E94 0000 		call lcd_cmd
 389               	/* epilogue start */
 390               	.LM57:
 391 01c6 0895      		ret
 392               	.LFE15:
 394               	.global	lcd_gotoxy2
 396               	lcd_gotoxy2:
 397               	.LFB16:
 398               	.LM58:
 399               	.LVL30:
 400               	/* prologue: function */
 401               	/* frame size = 0 */
 402               	.LM59:
 403 01c8 8054      		subi r24,lo8(-(-64))
 404               	.LVL31:
 405 01ca 0E94 0000 		call lcd_cmd
 406               	/* epilogue start */
 407               	.LM60:
 408 01ce 0895      		ret
 409               	.LFE16:
 411               	.global	delay_ms
 413               	delay_ms:
 414               	.LFB17:
 415               	.LM61:
 416               	.LVL32:
 417               	/* prologue: function */
 418               	/* frame size = 0 */
 419 01d0 00C0      		rjmp .L29
 420               	.LVL33:
 421               	.L31:
 422               	.LM62:
 423 01d2 20E0      		ldi r18,lo8(0)
 424 01d4 30E0      		ldi r19,hi8(0)
 425               	.L30:
 426               	.LM63:
 427               	/* #APP */
 428               	 ;  185 "lcd.h" 1
 429 01d6 0000      		nop
 430               	 ;  0 "" 2
 431               	.LM64:
 432               	/* #NOAPP */
 433 01d8 2F5F      		subi r18,lo8(-(1))
 434 01da 3F4F      		sbci r19,hi8(-(1))
 435 01dc 4CE0      		ldi r20,hi8(3276)
 436 01de 2C3C      		cpi r18,lo8(3276)
 437 01e0 3407      		cpc r19,r20
 438 01e2 01F4      		brne .L30
 439 01e4 0197      		sbiw r24,1
 440               	.LVL34:
 441               	.L29:
 442               	.LM65:
 443 01e6 0097      		sbiw r24,0
 444 01e8 01F4      		brne .L31
 445               	/* epilogue start */
 446               	.LM66:
 447 01ea 0895      		ret
 448               	.LFE17:
 450               	.global	lcd_init
 452               	lcd_init:
 453               	.LFB7:
 454               	.LM67:
 455               	/* prologue: function */
 456               	/* frame size = 0 */
 457               	.LM68:
 458 01ec 84E1      		ldi r24,lo8(20)
 459 01ee 90E0      		ldi r25,hi8(20)
 460 01f0 0E94 0000 		call delay_ms
 461               	.LM69:
 462 01f4 85B3      		in r24,53-32
 463 01f6 8093 0000 		sts save,r24
 464               	.LM70:
 465 01fa 8FEF      		ldi r24,lo8(-1)
 466 01fc 84BB      		out 52-32,r24
 467               	.LM71:
 468 01fe 8FE0      		ldi r24,lo8(15)
 469 0200 90E0      		ldi r25,hi8(15)
 470 0202 0E94 0000 		call delay_ms
 471               	.LM72:
 472 0206 80E2      		ldi r24,lo8(32)
 473 0208 85BB      		out 53-32,r24
 474               	.LM73:
 475 020a 81E0      		ldi r24,lo8(1)
 476 020c 0E94 0000 		call lcd_cmd
 477               	.LM74:
 478 0210 82E0      		ldi r24,lo8(2)
 479 0212 0E94 0000 		call lcd_cmd
 480               	.LM75:
 481 0216 80E8      		ldi r24,lo8(-128)
 482 0218 0E94 0000 		call lcd_cmd
 483               	.LM76:
 484 021c 84E1      		ldi r24,lo8(20)
 485 021e 90E0      		ldi r25,hi8(20)
 486 0220 0E94 0000 		call delay_ms
 487               	/* epilogue start */
 488               	.LM77:
 489 0224 0895      		ret
 490               	.LFE7:
 492               	.global	lcd_clear
 494               	lcd_clear:
 495               	.LFB18:
 496               	.LM78:
 497               	/* prologue: function */
 498               	/* frame size = 0 */
 499               	.LM79:
 500 0226 81E0      		ldi r24,lo8(1)
 501 0228 0E94 0000 		call lcd_cmd
 502               	/* epilogue start */
 503               	.LM80:
 504 022c 0895      		ret
 505               	.LFE18:
 507               	.global	initmatrix
 509               	initmatrix:
 510               	.LFB19:
 511               	.LM81:
 512               	/* prologue: function */
 513               	/* frame size = 0 */
 514               	.LM82:
 515 022e 20E0      		ldi r18,lo8(0)
 516 0230 30E0      		ldi r19,hi8(0)
 517               	.LVL35:
 518 0232 00C0      		rjmp .L39
 519               	.LVL36:
 520               	.L40:
 521               	.LM83:
 522 0234 1182      		std Z+1,__zero_reg__
 523 0236 1082      		st Z,__zero_reg__
 524 0238 1382      		std Z+3,__zero_reg__
 525 023a 1282      		std Z+2,__zero_reg__
 526 023c 1582      		std Z+5,__zero_reg__
 527 023e 1482      		std Z+4,__zero_reg__
 528               	.LM84:
 529 0240 0196      		adiw r24,1
 530 0242 3896      		adiw r30,8
 531 0244 8830      		cpi r24,8
 532 0246 9105      		cpc r25,__zero_reg__
 533 0248 01F4      		brne .L40
 534               	.LM85:
 535 024a 2F5F      		subi r18,lo8(-(1))
 536 024c 3F4F      		sbci r19,hi8(-(1))
 537 024e 2830      		cpi r18,8
 538 0250 3105      		cpc r19,__zero_reg__
 539 0252 01F4      		brne .L39
 540 0254 40E0      		ldi r20,lo8(0)
 541 0256 50E0      		ldi r21,hi8(0)
 542               	.LVL37:
 543 0258 00C0      		rjmp .L41
 544               	.LVL38:
 545               	.L39:
 546 025a F901      		movw r30,r18
 547 025c 46E0      		ldi r20,6
 548 025e EE0F      	1:	lsl r30
 549 0260 FF1F      		rol r31
 550 0262 4A95      		dec r20
 551 0264 01F4      		brne 1b
 552 0266 E050      		subi r30,lo8(-(a+2))
 553 0268 F040      		sbci r31,hi8(-(a+2))
 554 026a 80E0      		ldi r24,lo8(0)
 555 026c 90E0      		ldi r25,hi8(0)
 556 026e 00C0      		rjmp .L40
 557               	.LVL39:
 558               	.L42:
 559               	.LM86:
 560 0270 8D91      		ld r24,X+
 561 0272 9D91      		ld r25,X+
 562 0274 9183      		std Z+1,r25
 563 0276 8083      		st Z,r24
 564               	.LM87:
 565 0278 2F5F      		subi r18,lo8(-(1))
 566 027a 3F4F      		sbci r19,hi8(-(1))
 567 027c 3896      		adiw r30,8
 568 027e 2830      		cpi r18,8
 569 0280 3105      		cpc r19,__zero_reg__
 570 0282 01F4      		brne .L42
 571               	.LM88:
 572 0284 4F5F      		subi r20,lo8(-(1))
 573 0286 5F4F      		sbci r21,hi8(-(1))
 574 0288 4830      		cpi r20,8
 575 028a 5105      		cpc r21,__zero_reg__
 576 028c 01F4      		brne .L41
 577 028e 20E0      		ldi r18,lo8(0)
 578 0290 30E0      		ldi r19,hi8(0)
 579               	.LVL40:
 580               	.LM89:
 581 0292 4CE3      		ldi r20,lo8(60)
 582 0294 50E0      		ldi r21,hi8(60)
 583 0296 00C0      		rjmp .L43
 584               	.LVL41:
 585               	.L41:
 586               	.LM90:
 587 0298 DA01      		movw r26,r20
 588 029a 94E0      		ldi r25,4
 589 029c AA0F      	1:	lsl r26
 590 029e BB1F      		rol r27
 591 02a0 9A95      		dec r25
 592 02a2 01F4      		brne 1b
 593 02a4 A050      		subi r26,lo8(-(maze))
 594 02a6 B040      		sbci r27,hi8(-(maze))
 595 02a8 FA01      		movw r30,r20
 596 02aa 86E0      		ldi r24,6
 597 02ac EE0F      	1:	lsl r30
 598 02ae FF1F      		rol r31
 599 02b0 8A95      		dec r24
 600 02b2 01F4      		brne 1b
 601 02b4 E050      		subi r30,lo8(-(a))
 602 02b6 F040      		sbci r31,hi8(-(a))
 603 02b8 20E0      		ldi r18,lo8(0)
 604 02ba 30E0      		ldi r19,hi8(0)
 605 02bc 00C0      		rjmp .L42
 606               	.LVL42:
 607               	.L44:
 608               	.LM91:
 609 02be 1182      		std Z+1,__zero_reg__
 610 02c0 1082      		st Z,__zero_reg__
 611 02c2 1382      		std Z+3,__zero_reg__
 612 02c4 1282      		std Z+2,__zero_reg__
 613 02c6 1582      		std Z+5,__zero_reg__
 614 02c8 1482      		std Z+4,__zero_reg__
 615               	.LM92:
 616 02ca 0196      		adiw r24,1
 617 02cc 3696      		adiw r30,6
 618 02ce 8A30      		cpi r24,10
 619 02d0 9105      		cpc r25,__zero_reg__
 620 02d2 01F4      		brne .L44
 621               	.LM93:
 622 02d4 2F5F      		subi r18,lo8(-(1))
 623 02d6 3F4F      		sbci r19,hi8(-(1))
 624 02d8 2A30      		cpi r18,10
 625 02da 3105      		cpc r19,__zero_reg__
 626 02dc 01F0      		breq .L45
 627               	.L43:
 628 02de 249F      		mul r18,r20
 629 02e0 F001      		movw r30,r0
 630 02e2 259F      		mul r18,r21
 631 02e4 F00D      		add r31,r0
 632 02e6 349F      		mul r19,r20
 633 02e8 F00D      		add r31,r0
 634 02ea 1124      		clr r1
 635 02ec E050      		subi r30,lo8(-(bridge))
 636 02ee F040      		sbci r31,hi8(-(bridge))
 637 02f0 80E0      		ldi r24,lo8(0)
 638 02f2 90E0      		ldi r25,hi8(0)
 639 02f4 00C0      		rjmp .L44
 640               	.L46:
 641               	.LM94:
 642 02f6 4193      		st Z+,r20
 643 02f8 5193      		st Z+,r21
 644               	.LM95:
 645 02fa 0196      		adiw r24,1
 646 02fc 8A30      		cpi r24,10
 647 02fe 9105      		cpc r25,__zero_reg__
 648 0300 01F4      		brne .L46
 649               	.LM96:
 650 0302 2F5F      		subi r18,lo8(-(1))
 651 0304 3F4F      		sbci r19,hi8(-(1))
 652 0306 2A30      		cpi r18,10
 653 0308 3105      		cpc r19,__zero_reg__
 654 030a 01F4      		brne .L47
 655 030c 40E0      		ldi r20,lo8(maze+16)
 656 030e 50E0      		ldi r21,hi8(maze+16)
 657 0310 21E0      		ldi r18,lo8(1)
 658 0312 30E0      		ldi r19,hi8(1)
 659               	.LVL43:
 660 0314 00C0      		rjmp .L48
 661               	.L45:
 662 0316 20E0      		ldi r18,lo8(0)
 663 0318 30E0      		ldi r19,hi8(0)
 664               	.LVL44:
 665 031a 64E1      		ldi r22,lo8(20)
 666 031c 70E0      		ldi r23,hi8(20)
 667               	.LM97:
 668 031e 44E6      		ldi r20,lo8(100)
 669 0320 50E0      		ldi r21,hi8(100)
 670               	.L47:
 671               	.LM98:
 672 0322 269F      		mul r18,r22
 673 0324 F001      		movw r30,r0
 674 0326 279F      		mul r18,r23
 675 0328 F00D      		add r31,r0
 676 032a 369F      		mul r19,r22
 677 032c F00D      		add r31,r0
 678 032e 1124      		clr r1
 679 0330 E050      		subi r30,lo8(-(test))
 680 0332 F040      		sbci r31,hi8(-(test))
 681 0334 80E0      		ldi r24,lo8(0)
 682 0336 90E0      		ldi r25,hi8(0)
 683               	.LVL45:
 684 0338 00C0      		rjmp .L46
 685               	.LVL46:
 686               	.L49:
 687               	.LM99:
 688 033a 8D91      		ld r24,X+
 689 033c 9D91      		ld r25,X+
 690 033e 8193      		st Z+,r24
 691 0340 9193      		st Z+,r25
 692               	.LM100:
 693 0342 A417      		cp r26,r20
 694 0344 B507      		cpc r27,r21
 695 0346 01F4      		brne .L49
 696               	.LM101:
 697 0348 2F5F      		subi r18,lo8(-(1))
 698 034a 3F4F      		sbci r19,hi8(-(1))
 699 034c AD01      		movw r20,r26
 700 034e 405F      		subi r20,lo8(-(16))
 701 0350 5F4F      		sbci r21,hi8(-(16))
 702 0352 2930      		cpi r18,9
 703 0354 3105      		cpc r19,__zero_reg__
 704 0356 01F0      		breq .L50
 705               	.LVL47:
 706               	.L48:
 707 0358 D901      		movw r26,r18
 708 035a E4E0      		ldi r30,4
 709 035c AA0F      	1:	lsl r26
 710 035e BB1F      		rol r27
 711 0360 EA95      		dec r30
 712 0362 01F4      		brne 1b
 713 0364 A050      		subi r26,lo8(-(maze-16))
 714 0366 B040      		sbci r27,hi8(-(maze-16))
 715 0368 F901      		movw r30,r18
 716 036a EE0F      		lsl r30
 717 036c FF1F      		rol r31
 718 036e C901      		movw r24,r18
 719               	.LVL48:
 720 0370 63E0      		ldi r22,3
 721 0372 880F      	1:	lsl r24
 722 0374 991F      		rol r25
 723 0376 6A95      		dec r22
 724 0378 01F4      		brne 1b
 725 037a E80F      		add r30,r24
 726 037c F91F      		adc r31,r25
 727 037e EE0F      		lsl r30
 728 0380 FF1F      		rol r31
 729 0382 E050      		subi r30,lo8(-(test+2))
 730 0384 F040      		sbci r31,hi8(-(test+2))
 731 0386 00C0      		rjmp .L49
 732               	.L50:
 733 0388 80E0      		ldi r24,lo8(0)
 734 038a 90E0      		ldi r25,hi8(0)
 735               	.LVL49:
 736               	.LM102:
 737 038c 2EE4      		ldi r18,lo8(78)
 738               	.L51:
 739 038e FC01      		movw r30,r24
 740 0390 E050      		subi r30,lo8(-(path))
 741 0392 F040      		sbci r31,hi8(-(path))
 742 0394 2083      		st Z,r18
 743               	.LM103:
 744 0396 FC01      		movw r30,r24
 745 0398 E050      		subi r30,lo8(-(path_centre))
 746 039a F040      		sbci r31,hi8(-(path_centre))
 747 039c 2083      		st Z,r18
 748               	.LM104:
 749 039e FC01      		movw r30,r24
 750 03a0 E050      		subi r30,lo8(-(path_end_left))
 751 03a2 F040      		sbci r31,hi8(-(path_end_left))
 752 03a4 2083      		st Z,r18
 753               	.LM105:
 754 03a6 FC01      		movw r30,r24
 755 03a8 E050      		subi r30,lo8(-(path_end_right))
 756 03aa F040      		sbci r31,hi8(-(path_end_right))
 757 03ac 2083      		st Z,r18
 758               	.LM106:
 759 03ae 0196      		adiw r24,1
 760 03b0 8931      		cpi r24,25
 761 03b2 9105      		cpc r25,__zero_reg__
 762 03b4 01F4      		brne .L51
 763               	/* epilogue start */
 764               	.LM107:
 765 03b6 0895      		ret
 766               	.LFE19:
 768               	.global	updatemaze
 770               	updatemaze:
 771               	.LFB20:
 772               	.LM108:
 773               	/* prologue: function */
 774               	/* frame size = 0 */
 775               	.LM109:
 776 03b8 8091 0000 		lds r24,bridgeflag
 777 03bc 9091 0000 		lds r25,(bridgeflag)+1
 778 03c0 892B      		or r24,r25
 779 03c2 01F4      		brne .L68
 780 03c4 8091 0000 		lds r24,f2
 781 03c8 9091 0000 		lds r25,(f2)+1
 782 03cc 892B      		or r24,r25
 783 03ce 01F4      		brne .L68
 784               	.LM110:
 785 03d0 88B3      		in r24,56-32
 786               	.LM111:
 787 03d2 8091 0000 		lds r24,ori
 788 03d6 9091 0000 		lds r25,(ori)+1
 789 03da 8130      		cpi r24,1
 790 03dc 9105      		cpc r25,__zero_reg__
 791 03de 01F4      		brne .L64
 792               	.LM112:
 793 03e0 8091 0000 		lds r24,currx
 794 03e4 9091 0000 		lds r25,(currx)+1
 795 03e8 0196      		adiw r24,1
 796 03ea 00C0      		rjmp .L69
 797               	.L64:
 798               	.LM113:
 799 03ec 8230      		cpi r24,2
 800 03ee 9105      		cpc r25,__zero_reg__
 801 03f0 01F4      		brne .L66
 802               	.LM114:
 803 03f2 8091 0000 		lds r24,curry
 804 03f6 9091 0000 		lds r25,(curry)+1
 805 03fa 0197      		sbiw r24,1
 806 03fc 00C0      		rjmp .L70
 807               	.L66:
 808               	.LM115:
 809 03fe 8330      		cpi r24,3
 810 0400 9105      		cpc r25,__zero_reg__
 811 0402 01F4      		brne .L67
 812               	.LM116:
 813 0404 8091 0000 		lds r24,currx
 814 0408 9091 0000 		lds r25,(currx)+1
 815 040c 0197      		sbiw r24,1
 816               	.L69:
 817 040e 9093 0000 		sts (currx)+1,r25
 818 0412 8093 0000 		sts currx,r24
 819 0416 00C0      		rjmp .L65
 820               	.L67:
 821               	.LM117:
 822 0418 0497      		sbiw r24,4
 823 041a 01F4      		brne .L65
 824               	.LM118:
 825 041c 8091 0000 		lds r24,curry
 826 0420 9091 0000 		lds r25,(curry)+1
 827 0424 0196      		adiw r24,1
 828               	.L70:
 829 0426 9093 0000 		sts (curry)+1,r25
 830 042a 8093 0000 		sts curry,r24
 831               	.L65:
 832               	.LM119:
 833 042e 81E0      		ldi r24,lo8(1)
 834 0430 90E0      		ldi r25,hi8(1)
 835 0432 9093 0000 		sts (f2)+1,r25
 836 0436 8093 0000 		sts f2,r24
 837               	.L68:
 838 043a 0895      		ret
 839               	.LFE20:
 841               	.global	decidemaze
 843               	decidemaze:
 844               	.LFB21:
 845               	.LM120:
 846               	/* prologue: function */
 847               	/* frame size = 0 */
 848               	.LM121:
 849 043c 8091 0000 		lds r24,bridgeflag
 850 0440 9091 0000 		lds r25,(bridgeflag)+1
 851 0444 892B      		or r24,r25
 852 0446 01F4      		brne .L72
 853               	.LM122:
 854 0448 8091 0000 		lds r24,currx
 855 044c 9091 0000 		lds r25,(currx)+1
 856 0450 0097      		sbiw r24,0
 857 0452 01F4      		brne .L73
 858 0454 8091 0000 		lds r24,curry
 859 0458 9091 0000 		lds r25,(curry)+1
 860 045c 0797      		sbiw r24,7
 861 045e 01F0      		breq .L74
 862 0460 82E5      		ldi r24,lo8(82)
 863 0462 0895      		ret
 864               	.L73:
 865               	.LM123:
 866 0464 8730      		cpi r24,7
 867 0466 9105      		cpc r25,__zero_reg__
 868 0468 01F4      		brne .L76
 869 046a 8CE4      		ldi r24,lo8(76)
 870 046c 0895      		ret
 871               	.L76:
 872               	.LM124:
 873 046e 0197      		sbiw r24,1
 874 0470 0697      		sbiw r24,6
 875 0472 00F4      		brsh .L72
 876 0474 83E5      		ldi r24,lo8(83)
 877 0476 0895      		ret
 878               	.L72:
 879 0478 0895      		ret
 880               	.L74:
 881               	.LM125:
 882 047a 8EE4      		ldi r24,lo8(78)
 883 047c 0895      		ret
 884               	.LFE21:
 886               	.global	timer_init
 888               	timer_init:
 889               	.LFB22:
 890               	.LM126:
 891               	/* prologue: function */
 892               	/* frame size = 0 */
 893               	.LM127:
 894               	/* #APP */
 895               	 ;  177 "maze.h" 1
 896 047e 7894      		sei
 897               	 ;  0 "" 2
 898               	.LM128:
 899               	/* #NOAPP */
 900 0480 1092 0000 		sts (time)+1,__zero_reg__
 901 0484 1092 0000 		sts time,__zero_reg__
 902               	.LM129:
 903 0488 85E0      		ldi r24,lo8(5)
 904 048a 83BF      		out 83-32,r24
 905               	.LM130:
 906 048c 89B7      		in r24,89-32
 907 048e 8160      		ori r24,lo8(1)
 908 0490 89BF      		out 89-32,r24
 909               	.LM131:
 910 0492 12BE      		out 82-32,__zero_reg__
 911               	/* epilogue start */
 912               	.LM132:
 913 0494 0895      		ret
 914               	.LFE22:
 916               	.global	mazestore
 918               	mazestore:
 919               	.LFB23:
 920               	.LM133:
 921 0496 EF92      		push r14
 922 0498 FF92      		push r15
 923 049a 0F93      		push r16
 924 049c 1F93      		push r17
 925 049e CF93      		push r28
 926 04a0 DF93      		push r29
 927               	/* prologue: function */
 928               	/* frame size = 0 */
 929               	.LM134:
 930 04a2 8091 0000 		lds r24,nodeflag
 931 04a6 9091 0000 		lds r25,(nodeflag)+1
 932 04aa 0197      		sbiw r24,1
 933 04ac 01F4      		brne .L81
 934               	.LM135:
 935 04ae E091 0000 		lds r30,currx
 936 04b2 F091 0000 		lds r31,(currx)+1
 937 04b6 73E0      		ldi r23,3
 938 04b8 EE0F      	1:	lsl r30
 939 04ba FF1F      		rol r31
 940 04bc 7A95      		dec r23
 941 04be 01F4      		brne 1b
 942 04c0 8091 0000 		lds r24,curry
 943 04c4 9091 0000 		lds r25,(curry)+1
 944 04c8 E80F      		add r30,r24
 945 04ca F91F      		adc r31,r25
 946 04cc 63E0      		ldi r22,3
 947 04ce EE0F      	1:	lsl r30
 948 04d0 FF1F      		rol r31
 949 04d2 6A95      		dec r22
 950 04d4 01F4      		brne 1b
 951 04d6 E050      		subi r30,lo8(-(a))
 952 04d8 F040      		sbci r31,hi8(-(a))
 953 04da 84E6      		ldi r24,lo8(100)
 954 04dc 90E0      		ldi r25,hi8(100)
 955 04de 9183      		std Z+1,r25
 956 04e0 8083      		st Z,r24
 957               	.LM136:
 958 04e2 1092 0000 		sts (nodeflag)+1,__zero_reg__
 959 04e6 1092 0000 		sts nodeflag,__zero_reg__
 960               	.LM137:
 961 04ea 8091 0000 		lds r24,no
 962 04ee 9091 0000 		lds r25,(no)+1
 963 04f2 0196      		adiw r24,1
 964 04f4 9093 0000 		sts (no)+1,r25
 965 04f8 8093 0000 		sts no,r24
 966               	.L81:
 967               	.LM138:
 968 04fc E090 0000 		lds r14,bridgeflag
 969 0500 F090 0000 		lds r15,(bridgeflag)+1
 970 0504 81E0      		ldi r24,lo8(1)
 971 0506 E816      		cp r14,r24
 972 0508 F104      		cpc r15,__zero_reg__
 973 050a 01F0      		breq .+2
 974 050c 00C0      		rjmp .L82
 975               	.LM139:
 976 050e C091 0000 		lds r28,ori
 977 0512 D091 0000 		lds r29,(ori)+1
 978 0516 C130      		cpi r28,1
 979 0518 D105      		cpc r29,__zero_reg__
 980 051a 01F4      		brne .L83
 981               	.LM140:
 982 051c 8091 0000 		lds r24,currx
 983 0520 9091 0000 		lds r25,(currx)+1
 984 0524 BC01      		movw r22,r24
 985 0526 6F5F      		subi r22,lo8(-(1))
 986 0528 7F4F      		sbci r23,hi8(-(1))
 987 052a 2091 0000 		lds r18,curry
 988 052e 3091 0000 		lds r19,(curry)+1
 989 0532 DB01      		movw r26,r22
 990 0534 53E0      		ldi r21,3
 991 0536 AA0F      	1:	lsl r26
 992 0538 BB1F      		rol r27
 993 053a 5A95      		dec r21
 994 053c 01F4      		brne 1b
 995 053e A20F      		add r26,r18
 996 0540 B31F      		adc r27,r19
 997 0542 FD01      		movw r30,r26
 998 0544 43E0      		ldi r20,3
 999 0546 EE0F      	1:	lsl r30
 1000 0548 FF1F      		rol r31
 1001 054a 4A95      		dec r20
 1002 054c 01F4      		brne 1b
 1003 054e E050      		subi r30,lo8(-(a+2))
 1004 0550 F040      		sbci r31,hi8(-(a+2))
 1005 0552 9183      		std Z+1,r25
 1006 0554 8083      		st Z,r24
 1007               	.LM141:
 1008 0556 A901      		movw r20,r18
 1009 0558 4F5F      		subi r20,lo8(-(1))
 1010 055a 5F4F      		sbci r21,hi8(-(1))
 1011 055c 00C0      		rjmp .L99
 1012               	.L83:
 1013               	.LM142:
 1014 055e C230      		cpi r28,2
 1015 0560 D105      		cpc r29,__zero_reg__
 1016 0562 01F0      		breq .+2
 1017 0564 00C0      		rjmp .L85
 1018               	.LM143:
 1019 0566 2091 0000 		lds r18,curry
 1020 056a 3091 0000 		lds r19,(curry)+1
 1021 056e B901      		movw r22,r18
 1022 0570 6F5F      		subi r22,lo8(-(1))
 1023 0572 7F4F      		sbci r23,hi8(-(1))
 1024 0574 4091 0000 		lds r20,currx
 1025 0578 5091 0000 		lds r21,(currx)+1
 1026 057c CA01      		movw r24,r20
 1027 057e 0197      		sbiw r24,1
 1028 0580 DA01      		movw r26,r20
 1029 0582 03E0      		ldi r16,3
 1030 0584 AA0F      	1:	lsl r26
 1031 0586 BB1F      		rol r27
 1032 0588 0A95      		dec r16
 1033 058a 01F4      		brne 1b
 1034 058c A60F      		add r26,r22
 1035 058e B71F      		adc r27,r23
 1036 0590 FD01      		movw r30,r26
 1037 0592 13E0      		ldi r17,3
 1038 0594 EE0F      	1:	lsl r30
 1039 0596 FF1F      		rol r31
 1040 0598 1A95      		dec r17
 1041 059a 01F4      		brne 1b
 1042 059c E050      		subi r30,lo8(-(a+2))
 1043 059e F040      		sbci r31,hi8(-(a+2))
 1044 05a0 9183      		std Z+1,r25
 1045 05a2 8083      		st Z,r24
 1046               	.LM144:
 1047 05a4 03E0      		ldi r16,3
 1048 05a6 AA0F      	1:	lsl r26
 1049 05a8 BB1F      		rol r27
 1050 05aa 0A95      		dec r16
 1051 05ac 01F4      		brne 1b
 1052 05ae FD01      		movw r30,r26
 1053 05b0 E050      		subi r30,lo8(-(a+4))
 1054 05b2 F040      		sbci r31,hi8(-(a+4))
 1055 05b4 3183      		std Z+1,r19
 1056 05b6 2083      		st Z,r18
 1057               	.LM145:
 1058 05b8 A050      		subi r26,lo8(-(a))
 1059 05ba B040      		sbci r27,hi8(-(a))
 1060 05bc 1796      		adiw r26,6+1
 1061 05be DC93      		st X,r29
 1062 05c0 CE93      		st -X,r28
 1063 05c2 1697      		sbiw r26,6
 1064               	.LM146:
 1065 05c4 B3E0      		ldi r27,3
 1066 05c6 880F      	1:	lsl r24
 1067 05c8 991F      		rol r25
 1068 05ca BA95      		dec r27
 1069 05cc 01F4      		brne 1b
 1070 05ce 820F      		add r24,r18
 1071 05d0 931F      		adc r25,r19
 1072 05d2 FC01      		movw r30,r24
 1073 05d4 A3E0      		ldi r26,3
 1074 05d6 EE0F      	1:	lsl r30
 1075 05d8 FF1F      		rol r31
 1076 05da AA95      		dec r26
 1077 05dc 01F4      		brne 1b
 1078 05de E050      		subi r30,lo8(-(a+2))
 1079 05e0 F040      		sbci r31,hi8(-(a+2))
 1080 05e2 5183      		std Z+1,r21
 1081 05e4 4083      		st Z,r20
 1082               	.LM147:
 1083 05e6 E3E0      		ldi r30,3
 1084 05e8 880F      	1:	lsl r24
 1085 05ea 991F      		rol r25
 1086 05ec EA95      		dec r30
 1087 05ee 01F4      		brne 1b
 1088 05f0 FC01      		movw r30,r24
 1089 05f2 E050      		subi r30,lo8(-(a+4))
 1090 05f4 F040      		sbci r31,hi8(-(a+4))
 1091 05f6 7183      		std Z+1,r23
 1092 05f8 6083      		st Z,r22
 1093               	.LM148:
 1094 05fa 8050      		subi r24,lo8(-(a))
 1095 05fc 9040      		sbci r25,hi8(-(a))
 1096 05fe FC01      		movw r30,r24
 1097 0600 00C0      		rjmp .L104
 1098               	.L85:
 1099               	.LM149:
 1100 0602 C330      		cpi r28,3
 1101 0604 D105      		cpc r29,__zero_reg__
 1102 0606 01F4      		brne .L86
 1103               	.LM150:
 1104 0608 8091 0000 		lds r24,currx
 1105 060c 9091 0000 		lds r25,(currx)+1
 1106 0610 BC01      		movw r22,r24
 1107 0612 6150      		subi r22,lo8(-(-1))
 1108 0614 7040      		sbci r23,hi8(-(-1))
 1109 0616 2091 0000 		lds r18,curry
 1110 061a 3091 0000 		lds r19,(curry)+1
 1111 061e DB01      		movw r26,r22
 1112 0620 43E0      		ldi r20,3
 1113 0622 AA0F      	1:	lsl r26
 1114 0624 BB1F      		rol r27
 1115 0626 4A95      		dec r20
 1116 0628 01F4      		brne 1b
 1117 062a A20F      		add r26,r18
 1118 062c B31F      		adc r27,r19
 1119 062e FD01      		movw r30,r26
 1120 0630 03E0      		ldi r16,3
 1121 0632 EE0F      	1:	lsl r30
 1122 0634 FF1F      		rol r31
 1123 0636 0A95      		dec r16
 1124 0638 01F4      		brne 1b
 1125 063a E050      		subi r30,lo8(-(a+2))
 1126 063c F040      		sbci r31,hi8(-(a+2))
 1127 063e 9183      		std Z+1,r25
 1128 0640 8083      		st Z,r24
 1129               	.LM151:
 1130 0642 A901      		movw r20,r18
 1131 0644 4150      		subi r20,lo8(-(-1))
 1132 0646 5040      		sbci r21,hi8(-(-1))
 1133 0648 13E0      		ldi r17,3
 1134 064a AA0F      	1:	lsl r26
 1135 064c BB1F      		rol r27
 1136 064e 1A95      		dec r17
 1137 0650 01F4      		brne 1b
 1138 0652 FD01      		movw r30,r26
 1139 0654 E050      		subi r30,lo8(-(a+4))
 1140 0656 F040      		sbci r31,hi8(-(a+4))
 1141 0658 5183      		std Z+1,r21
 1142 065a 4083      		st Z,r20
 1143               	.LM152:
 1144 065c A050      		subi r26,lo8(-(a))
 1145 065e B040      		sbci r27,hi8(-(a))
 1146 0660 1796      		adiw r26,6+1
 1147 0662 FC92      		st X,r15
 1148 0664 EE92      		st -X,r14
 1149 0666 1697      		sbiw r26,6
 1150 0668 00C0      		rjmp .L105
 1151               	.L86:
 1152               	.LM153:
 1153 066a 2497      		sbiw r28,4
 1154 066c 01F0      		breq .+2
 1155 066e 00C0      		rjmp .L84
 1156               	.LM154:
 1157 0670 4091 0000 		lds r20,curry
 1158 0674 5091 0000 		lds r21,(curry)+1
 1159 0678 8A01      		movw r16,r20
 1160 067a 0150      		subi r16,lo8(-(-1))
 1161 067c 1040      		sbci r17,hi8(-(-1))
 1162 067e 6091 0000 		lds r22,currx
 1163 0682 7091 0000 		lds r23,(currx)+1
 1164 0686 9B01      		movw r18,r22
 1165 0688 2F5F      		subi r18,lo8(-(1))
 1166 068a 3F4F      		sbci r19,hi8(-(1))
 1167 068c DB01      		movw r26,r22
 1168 068e E3E0      		ldi r30,3
 1169 0690 AA0F      	1:	lsl r26
 1170 0692 BB1F      		rol r27
 1171 0694 EA95      		dec r30
 1172 0696 01F4      		brne 1b
 1173 0698 A00F      		add r26,r16
 1174 069a B11F      		adc r27,r17
 1175 069c FD01      		movw r30,r26
 1176 069e 93E0      		ldi r25,3
 1177 06a0 EE0F      	1:	lsl r30
 1178 06a2 FF1F      		rol r31
 1179 06a4 9A95      		dec r25
 1180 06a6 01F4      		brne 1b
 1181 06a8 E050      		subi r30,lo8(-(a+2))
 1182 06aa F040      		sbci r31,hi8(-(a+2))
 1183 06ac 3183      		std Z+1,r19
 1184 06ae 2083      		st Z,r18
 1185               	.LM155:
 1186 06b0 83E0      		ldi r24,3
 1187 06b2 AA0F      	1:	lsl r26
 1188 06b4 BB1F      		rol r27
 1189 06b6 8A95      		dec r24
 1190 06b8 01F4      		brne 1b
 1191 06ba FD01      		movw r30,r26
 1192 06bc E050      		subi r30,lo8(-(a+4))
 1193 06be F040      		sbci r31,hi8(-(a+4))
 1194 06c0 5183      		std Z+1,r21
 1195 06c2 4083      		st Z,r20
 1196               	.LM156:
 1197 06c4 A050      		subi r26,lo8(-(a))
 1198 06c6 B040      		sbci r27,hi8(-(a))
 1199 06c8 82E0      		ldi r24,lo8(2)
 1200 06ca 90E0      		ldi r25,hi8(2)
 1201 06cc 1796      		adiw r26,6+1
 1202 06ce 9C93      		st X,r25
 1203 06d0 8E93      		st -X,r24
 1204 06d2 1697      		sbiw r26,6
 1205               	.LM157:
 1206 06d4 E3E0      		ldi r30,3
 1207 06d6 220F      	1:	lsl r18
 1208 06d8 331F      		rol r19
 1209 06da EA95      		dec r30
 1210 06dc 01F4      		brne 1b
 1211 06de 240F      		add r18,r20
 1212 06e0 351F      		adc r19,r21
 1213 06e2 F901      		movw r30,r18
 1214 06e4 43E0      		ldi r20,3
 1215 06e6 EE0F      	1:	lsl r30
 1216 06e8 FF1F      		rol r31
 1217 06ea 4A95      		dec r20
 1218 06ec 01F4      		brne 1b
 1219 06ee E050      		subi r30,lo8(-(a+2))
 1220 06f0 F040      		sbci r31,hi8(-(a+2))
 1221 06f2 7183      		std Z+1,r23
 1222 06f4 6083      		st Z,r22
 1223               	.LM158:
 1224 06f6 93E0      		ldi r25,3
 1225 06f8 220F      	1:	lsl r18
 1226 06fa 331F      		rol r19
 1227 06fc 9A95      		dec r25
 1228 06fe 01F4      		brne 1b
 1229 0700 F901      		movw r30,r18
 1230 0702 E050      		subi r30,lo8(-(a+4))
 1231 0704 F040      		sbci r31,hi8(-(a+4))
 1232 0706 1183      		std Z+1,r17
 1233 0708 0083      		st Z,r16
 1234               	.LM159:
 1235 070a 2050      		subi r18,lo8(-(a))
 1236 070c 3040      		sbci r19,hi8(-(a))
 1237 070e F901      		movw r30,r18
 1238               	.L104:
 1239 0710 F782      		std Z+7,r15
 1240 0712 E682      		std Z+6,r14
 1241 0714 00C0      		rjmp .L84
 1242               	.L82:
 1243               	.LM160:
 1244 0716 F2E0      		ldi r31,lo8(2)
 1245 0718 EF16      		cp r14,r31
 1246 071a F104      		cpc r15,__zero_reg__
 1247 071c 01F0      		breq .+2
 1248 071e 00C0      		rjmp .L87
 1249               	.LM161:
 1250 0720 C091 0000 		lds r28,ori
 1251 0724 D091 0000 		lds r29,(ori)+1
 1252 0728 C130      		cpi r28,1
 1253 072a D105      		cpc r29,__zero_reg__
 1254 072c 01F0      		breq .+2
 1255 072e 00C0      		rjmp .L88
 1256               	.LM162:
 1257 0730 6091 0000 		lds r22,curry
 1258 0734 7091 0000 		lds r23,(curry)+1
 1259 0738 2091 0000 		lds r18,currx
 1260 073c 3091 0000 		lds r19,(currx)+1
 1261 0740 C901      		movw r24,r18
 1262 0742 0196      		adiw r24,1
 1263 0744 D901      		movw r26,r18
 1264 0746 03E0      		ldi r16,3
 1265 0748 AA0F      	1:	lsl r26
 1266 074a BB1F      		rol r27
 1267 074c 0A95      		dec r16
 1268 074e 01F4      		brne 1b
 1269 0750 A60F      		add r26,r22
 1270 0752 B71F      		adc r27,r23
 1271 0754 FD01      		movw r30,r26
 1272 0756 13E0      		ldi r17,3
 1273 0758 EE0F      	1:	lsl r30
 1274 075a FF1F      		rol r31
 1275 075c 1A95      		dec r17
 1276 075e 01F4      		brne 1b
 1277 0760 E050      		subi r30,lo8(-(a+2))
 1278 0762 F040      		sbci r31,hi8(-(a+2))
 1279 0764 9183      		std Z+1,r25
 1280 0766 8083      		st Z,r24
 1281               	.LM163:
 1282 0768 AB01      		movw r20,r22
 1283 076a 4F5F      		subi r20,lo8(-(1))
 1284 076c 5F4F      		sbci r21,hi8(-(1))
 1285 076e E3E0      		ldi r30,3
 1286 0770 AA0F      	1:	lsl r26
 1287 0772 BB1F      		rol r27
 1288 0774 EA95      		dec r30
 1289 0776 01F4      		brne 1b
 1290 0778 FD01      		movw r30,r26
 1291 077a E050      		subi r30,lo8(-(a+4))
 1292 077c F040      		sbci r31,hi8(-(a+4))
 1293 077e 5183      		std Z+1,r21
 1294 0780 4083      		st Z,r20
 1295               	.LM164:
 1296 0782 A050      		subi r26,lo8(-(a))
 1297 0784 B040      		sbci r27,hi8(-(a))
 1298 0786 1796      		adiw r26,6+1
 1299 0788 DC93      		st X,r29
 1300 078a CE93      		st -X,r28
 1301 078c 1697      		sbiw r26,6
 1302               	.LM165:
 1303 078e 13E0      		ldi r17,3
 1304 0790 880F      	1:	lsl r24
 1305 0792 991F      		rol r25
 1306 0794 1A95      		dec r17
 1307 0796 01F4      		brne 1b
 1308 0798 840F      		add r24,r20
 1309 079a 951F      		adc r25,r21
 1310 079c FC01      		movw r30,r24
 1311 079e B3E0      		ldi r27,3
 1312 07a0 EE0F      	1:	lsl r30
 1313 07a2 FF1F      		rol r31
 1314 07a4 BA95      		dec r27
 1315 07a6 01F4      		brne 1b
 1316 07a8 E050      		subi r30,lo8(-(a+2))
 1317 07aa F040      		sbci r31,hi8(-(a+2))
 1318 07ac 3183      		std Z+1,r19
 1319 07ae 2083      		st Z,r18
 1320               	.LM166:
 1321 07b0 A3E0      		ldi r26,3
 1322 07b2 880F      	1:	lsl r24
 1323 07b4 991F      		rol r25
 1324 07b6 AA95      		dec r26
 1325 07b8 01F4      		brne 1b
 1326 07ba FC01      		movw r30,r24
 1327 07bc E050      		subi r30,lo8(-(a+4))
 1328 07be F040      		sbci r31,hi8(-(a+4))
 1329 07c0 7183      		std Z+1,r23
 1330 07c2 6083      		st Z,r22
 1331               	.LM167:
 1332 07c4 8050      		subi r24,lo8(-(a))
 1333 07c6 9040      		sbci r25,hi8(-(a))
 1334 07c8 EC01      		movw r28,r24
 1335 07ca 00C0      		rjmp .L100
 1336               	.L88:
 1337               	.LM168:
 1338 07cc C230      		cpi r28,2
 1339 07ce D105      		cpc r29,__zero_reg__
 1340 07d0 01F4      		brne .L89
 1341               	.LM169:
 1342 07d2 6091 0000 		lds r22,curry
 1343 07d6 7091 0000 		lds r23,(curry)+1
 1344 07da 8091 0000 		lds r24,currx
 1345 07de 9091 0000 		lds r25,(currx)+1
 1346 07e2 9C01      		movw r18,r24
 1347 07e4 2150      		subi r18,lo8(-(-1))
 1348 07e6 3040      		sbci r19,hi8(-(-1))
 1349 07e8 00C0      		rjmp .L107
 1350               	.L89:
 1351               	.LM170:
 1352 07ea C330      		cpi r28,3
 1353 07ec D105      		cpc r29,__zero_reg__
 1354 07ee 01F0      		breq .+2
 1355 07f0 00C0      		rjmp .L90
 1356               	.LM171:
 1357 07f2 6091 0000 		lds r22,curry
 1358 07f6 7091 0000 		lds r23,(curry)+1
 1359 07fa 4091 0000 		lds r20,currx
 1360 07fe 5091 0000 		lds r21,(currx)+1
 1361 0802 9A01      		movw r18,r20
 1362 0804 2150      		subi r18,lo8(-(-1))
 1363 0806 3040      		sbci r19,hi8(-(-1))
 1364 0808 DA01      		movw r26,r20
 1365 080a E3E0      		ldi r30,3
 1366 080c AA0F      	1:	lsl r26
 1367 080e BB1F      		rol r27
 1368 0810 EA95      		dec r30
 1369 0812 01F4      		brne 1b
 1370 0814 A60F      		add r26,r22
 1371 0816 B71F      		adc r27,r23
 1372 0818 FD01      		movw r30,r26
 1373 081a 93E0      		ldi r25,3
 1374 081c EE0F      	1:	lsl r30
 1375 081e FF1F      		rol r31
 1376 0820 9A95      		dec r25
 1377 0822 01F4      		brne 1b
 1378 0824 E050      		subi r30,lo8(-(a+2))
 1379 0826 F040      		sbci r31,hi8(-(a+2))
 1380 0828 3183      		std Z+1,r19
 1381 082a 2083      		st Z,r18
 1382               	.LM172:
 1383 082c 8B01      		movw r16,r22
 1384 082e 0150      		subi r16,lo8(-(-1))
 1385 0830 1040      		sbci r17,hi8(-(-1))
 1386 0832 83E0      		ldi r24,3
 1387 0834 AA0F      	1:	lsl r26
 1388 0836 BB1F      		rol r27
 1389 0838 8A95      		dec r24
 1390 083a 01F4      		brne 1b
 1391 083c FD01      		movw r30,r26
 1392 083e E050      		subi r30,lo8(-(a+4))
 1393 0840 F040      		sbci r31,hi8(-(a+4))
 1394 0842 1183      		std Z+1,r17
 1395 0844 0083      		st Z,r16
 1396               	.LM173:
 1397 0846 A050      		subi r26,lo8(-(a))
 1398 0848 B040      		sbci r27,hi8(-(a))
 1399 084a 81E0      		ldi r24,lo8(1)
 1400 084c 90E0      		ldi r25,hi8(1)
 1401 084e 1796      		adiw r26,6+1
 1402 0850 9C93      		st X,r25
 1403 0852 8E93      		st -X,r24
 1404 0854 1697      		sbiw r26,6
 1405               	.LM174:
 1406 0856 E3E0      		ldi r30,3
 1407 0858 220F      	1:	lsl r18
 1408 085a 331F      		rol r19
 1409 085c EA95      		dec r30
 1410 085e 01F4      		brne 1b
 1411 0860 200F      		add r18,r16
 1412 0862 311F      		adc r19,r17
 1413 0864 F901      		movw r30,r18
 1414 0866 93E0      		ldi r25,3
 1415 0868 EE0F      	1:	lsl r30
 1416 086a FF1F      		rol r31
 1417 086c 9A95      		dec r25
 1418 086e 01F4      		brne 1b
 1419 0870 E050      		subi r30,lo8(-(a+2))
 1420 0872 F040      		sbci r31,hi8(-(a+2))
 1421 0874 5183      		std Z+1,r21
 1422 0876 4083      		st Z,r20
 1423               	.LM175:
 1424 0878 83E0      		ldi r24,3
 1425 087a 220F      	1:	lsl r18
 1426 087c 331F      		rol r19
 1427 087e 8A95      		dec r24
 1428 0880 01F4      		brne 1b
 1429 0882 F901      		movw r30,r18
 1430 0884 E050      		subi r30,lo8(-(a+4))
 1431 0886 F040      		sbci r31,hi8(-(a+4))
 1432 0888 7183      		std Z+1,r23
 1433 088a 6083      		st Z,r22
 1434               	.LM176:
 1435 088c 2050      		subi r18,lo8(-(a))
 1436 088e 3040      		sbci r19,hi8(-(a))
 1437 0890 E901      		movw r28,r18
 1438               	.L100:
 1439 0892 FF82      		std Y+7,r15
 1440 0894 EE82      		std Y+6,r14
 1441 0896 00C0      		rjmp .L84
 1442               	.L90:
 1443               	.LM177:
 1444 0898 2497      		sbiw r28,4
 1445 089a 01F0      		breq .+2
 1446 089c 00C0      		rjmp .L84
 1447               	.LM178:
 1448 089e 4091 0000 		lds r20,curry
 1449 08a2 5091 0000 		lds r21,(curry)+1
 1450 08a6 2091 0000 		lds r18,currx
 1451 08aa 3091 0000 		lds r19,(currx)+1
 1452 08ae D901      		movw r26,r18
 1453 08b0 1196      		adiw r26,1
 1454               	.LM179:
 1455 08b2 BA01      		movw r22,r20
 1456 08b4 6150      		subi r22,lo8(-(-1))
 1457 08b6 7040      		sbci r23,hi8(-(-1))
 1458 08b8 F901      		movw r30,r18
 1459 08ba 13E0      		ldi r17,3
 1460 08bc EE0F      	1:	lsl r30
 1461 08be FF1F      		rol r31
 1462 08c0 1A95      		dec r17
 1463 08c2 01F4      		brne 1b
 1464 08c4 E40F      		add r30,r20
 1465 08c6 F51F      		adc r31,r21
 1466 08c8 93E0      		ldi r25,3
 1467 08ca EE0F      	1:	lsl r30
 1468 08cc FF1F      		rol r31
 1469 08ce 9A95      		dec r25
 1470 08d0 01F4      		brne 1b
 1471 08d2 CF01      		movw r24,r30
 1472 08d4 8050      		subi r24,lo8(-(a+4))
 1473 08d6 9040      		sbci r25,hi8(-(a+4))
 1474 08d8 EC01      		movw r28,r24
 1475 08da 7983      		std Y+1,r23
 1476 08dc 6883      		st Y,r22
 1477               	.LM180:
 1478 08de E050      		subi r30,lo8(-(a+2))
 1479 08e0 F040      		sbci r31,hi8(-(a+2))
 1480 08e2 F182      		std Z+1,r15
 1481 08e4 E082      		st Z,r14
 1482               	.LM181:
 1483 08e6 03E0      		ldi r16,3
 1484 08e8 AA0F      	1:	lsl r26
 1485 08ea BB1F      		rol r27
 1486 08ec 0A95      		dec r16
 1487 08ee 01F4      		brne 1b
 1488 08f0 A60F      		add r26,r22
 1489 08f2 B71F      		adc r27,r23
 1490 08f4 FD01      		movw r30,r26
 1491 08f6 13E0      		ldi r17,3
 1492 08f8 EE0F      	1:	lsl r30
 1493 08fa FF1F      		rol r31
 1494 08fc 1A95      		dec r17
 1495 08fe 01F4      		brne 1b
 1496 0900 E050      		subi r30,lo8(-(a+2))
 1497 0902 F040      		sbci r31,hi8(-(a+2))
 1498 0904 3183      		std Z+1,r19
 1499 0906 2083      		st Z,r18
 1500               	.LM182:
 1501 0908 73E0      		ldi r23,3
 1502 090a AA0F      	1:	lsl r26
 1503 090c BB1F      		rol r27
 1504 090e 7A95      		dec r23
 1505 0910 01F4      		brne 1b
 1506 0912 FD01      		movw r30,r26
 1507 0914 E050      		subi r30,lo8(-(a+4))
 1508 0916 F040      		sbci r31,hi8(-(a+4))
 1509 0918 5183      		std Z+1,r21
 1510 091a 4083      		st Z,r20
 1511               	.LM183:
 1512 091c A050      		subi r26,lo8(-(a))
 1513 091e B040      		sbci r27,hi8(-(a))
 1514 0920 81E0      		ldi r24,lo8(1)
 1515 0922 90E0      		ldi r25,hi8(1)
 1516 0924 1796      		adiw r26,6+1
 1517 0926 9C93      		st X,r25
 1518 0928 8E93      		st -X,r24
 1519 092a 1697      		sbiw r26,6
 1520 092c 00C0      		rjmp .L84
 1521               	.L87:
 1522               	.LM184:
 1523 092e E3E0      		ldi r30,lo8(3)
 1524 0930 EE16      		cp r14,r30
 1525 0932 F104      		cpc r15,__zero_reg__
 1526 0934 01F0      		breq .+2
 1527 0936 00C0      		rjmp .L91
 1528               	.LM185:
 1529 0938 C091 0000 		lds r28,ori
 1530 093c D091 0000 		lds r29,(ori)+1
 1531 0940 C130      		cpi r28,1
 1532 0942 D105      		cpc r29,__zero_reg__
 1533 0944 01F0      		breq .+2
 1534 0946 00C0      		rjmp .L92
 1535               	.LM186:
 1536 0948 8091 0000 		lds r24,currx
 1537 094c 9091 0000 		lds r25,(currx)+1
 1538 0950 BC01      		movw r22,r24
 1539 0952 6F5F      		subi r22,lo8(-(1))
 1540 0954 7F4F      		sbci r23,hi8(-(1))
 1541 0956 2091 0000 		lds r18,curry
 1542 095a 3091 0000 		lds r19,(curry)+1
 1543 095e DB01      		movw r26,r22
 1544 0960 53E0      		ldi r21,3
 1545 0962 AA0F      	1:	lsl r26
 1546 0964 BB1F      		rol r27
 1547 0966 5A95      		dec r21
 1548 0968 01F4      		brne 1b
 1549 096a A20F      		add r26,r18
 1550 096c B31F      		adc r27,r19
 1551 096e FD01      		movw r30,r26
 1552 0970 43E0      		ldi r20,3
 1553 0972 EE0F      	1:	lsl r30
 1554 0974 FF1F      		rol r31
 1555 0976 4A95      		dec r20
 1556 0978 01F4      		brne 1b
 1557 097a E050      		subi r30,lo8(-(a+2))
 1558 097c F040      		sbci r31,hi8(-(a+2))
 1559 097e 9183      		std Z+1,r25
 1560 0980 8083      		st Z,r24
 1561               	.LM187:
 1562 0982 A901      		movw r20,r18
 1563 0984 4150      		subi r20,lo8(-(-1))
 1564 0986 5040      		sbci r21,hi8(-(-1))
 1565               	.L99:
 1566 0988 03E0      		ldi r16,3
 1567 098a AA0F      	1:	lsl r26
 1568 098c BB1F      		rol r27
 1569 098e 0A95      		dec r16
 1570 0990 01F4      		brne 1b
 1571 0992 FD01      		movw r30,r26
 1572 0994 E050      		subi r30,lo8(-(a+4))
 1573 0996 F040      		sbci r31,hi8(-(a+4))
 1574 0998 5183      		std Z+1,r21
 1575 099a 4083      		st Z,r20
 1576               	.LM188:
 1577 099c A050      		subi r26,lo8(-(a))
 1578 099e B040      		sbci r27,hi8(-(a))
 1579 09a0 1796      		adiw r26,6+1
 1580 09a2 DC93      		st X,r29
 1581 09a4 CE93      		st -X,r28
 1582 09a6 1697      		sbiw r26,6
 1583               	.L105:
 1584               	.LM189:
 1585 09a8 B3E0      		ldi r27,3
 1586 09aa 880F      	1:	lsl r24
 1587 09ac 991F      		rol r25
 1588 09ae BA95      		dec r27
 1589 09b0 01F4      		brne 1b
 1590 09b2 840F      		add r24,r20
 1591 09b4 951F      		adc r25,r21
 1592 09b6 FC01      		movw r30,r24
 1593 09b8 A3E0      		ldi r26,3
 1594 09ba EE0F      	1:	lsl r30
 1595 09bc FF1F      		rol r31
 1596 09be AA95      		dec r26
 1597 09c0 01F4      		brne 1b
 1598 09c2 E050      		subi r30,lo8(-(a+2))
 1599 09c4 F040      		sbci r31,hi8(-(a+2))
 1600 09c6 7183      		std Z+1,r23
 1601 09c8 6083      		st Z,r22
 1602               	.LM190:
 1603 09ca F3E0      		ldi r31,3
 1604 09cc 880F      	1:	lsl r24
 1605 09ce 991F      		rol r25
 1606 09d0 FA95      		dec r31
 1607 09d2 01F4      		brne 1b
 1608 09d4 FC01      		movw r30,r24
 1609 09d6 E050      		subi r30,lo8(-(a+4))
 1610 09d8 F040      		sbci r31,hi8(-(a+4))
 1611 09da 3183      		std Z+1,r19
 1612 09dc 2083      		st Z,r18
 1613               	.L102:
 1614               	.LM191:
 1615 09de 8050      		subi r24,lo8(-(a))
 1616 09e0 9040      		sbci r25,hi8(-(a))
 1617 09e2 22E0      		ldi r18,lo8(2)
 1618 09e4 30E0      		ldi r19,hi8(2)
 1619 09e6 EC01      		movw r28,r24
 1620 09e8 3F83      		std Y+7,r19
 1621 09ea 2E83      		std Y+6,r18
 1622 09ec 00C0      		rjmp .L84
 1623               	.L92:
 1624               	.LM192:
 1625 09ee C230      		cpi r28,2
 1626 09f0 D105      		cpc r29,__zero_reg__
 1627 09f2 01F0      		breq .+2
 1628 09f4 00C0      		rjmp .L93
 1629               	.LM193:
 1630 09f6 2091 0000 		lds r18,curry
 1631 09fa 3091 0000 		lds r19,(curry)+1
 1632 09fe A901      		movw r20,r18
 1633 0a00 4F5F      		subi r20,lo8(-(1))
 1634 0a02 5F4F      		sbci r21,hi8(-(1))
 1635 0a04 A091 0000 		lds r26,currx
 1636 0a08 B091 0000 		lds r27,(currx)+1
 1637 0a0c CD01      		movw r24,r26
 1638 0a0e 0196      		adiw r24,1
 1639 0a10 73E0      		ldi r23,3
 1640 0a12 AA0F      	1:	lsl r26
 1641 0a14 BB1F      		rol r27
 1642 0a16 7A95      		dec r23
 1643 0a18 01F4      		brne 1b
 1644 0a1a A40F      		add r26,r20
 1645 0a1c B51F      		adc r27,r21
 1646 0a1e FD01      		movw r30,r26
 1647 0a20 63E0      		ldi r22,3
 1648 0a22 EE0F      	1:	lsl r30
 1649 0a24 FF1F      		rol r31
 1650 0a26 6A95      		dec r22
 1651 0a28 01F4      		brne 1b
 1652 0a2a E050      		subi r30,lo8(-(a+2))
 1653 0a2c F040      		sbci r31,hi8(-(a+2))
 1654 0a2e 9183      		std Z+1,r25
 1655 0a30 8083      		st Z,r24
 1656               	.LM194:
 1657 0a32 03E0      		ldi r16,3
 1658 0a34 AA0F      	1:	lsl r26
 1659 0a36 BB1F      		rol r27
 1660 0a38 0A95      		dec r16
 1661 0a3a 01F4      		brne 1b
 1662 0a3c FD01      		movw r30,r26
 1663 0a3e E050      		subi r30,lo8(-(a+4))
 1664 0a40 F040      		sbci r31,hi8(-(a+4))
 1665 0a42 3183      		std Z+1,r19
 1666 0a44 2083      		st Z,r18
 1667               	.LM195:
 1668 0a46 A050      		subi r26,lo8(-(a))
 1669 0a48 B040      		sbci r27,hi8(-(a))
 1670 0a4a 1796      		adiw r26,6+1
 1671 0a4c DC93      		st X,r29
 1672 0a4e CE93      		st -X,r28
 1673 0a50 1697      		sbiw r26,6
 1674               	.LM196:
 1675 0a52 F3E0      		ldi r31,3
 1676 0a54 880F      	1:	lsl r24
 1677 0a56 991F      		rol r25
 1678 0a58 FA95      		dec r31
 1679 0a5a 01F4      		brne 1b
 1680 0a5c 820F      		add r24,r18
 1681 0a5e 931F      		adc r25,r19
 1682 0a60 E3E0      		ldi r30,3
 1683 0a62 880F      	1:	lsl r24
 1684 0a64 991F      		rol r25
 1685 0a66 EA95      		dec r30
 1686 0a68 01F4      		brne 1b
 1687 0a6a FC01      		movw r30,r24
 1688 0a6c E050      		subi r30,lo8(-(a+4))
 1689 0a6e F040      		sbci r31,hi8(-(a+4))
 1690 0a70 5183      		std Z+1,r21
 1691 0a72 4083      		st Z,r20
 1692               	.LM197:
 1693 0a74 8050      		subi r24,lo8(-(a+2))
 1694 0a76 9040      		sbci r25,hi8(-(a+2))
 1695 0a78 21E0      		ldi r18,lo8(1)
 1696 0a7a 30E0      		ldi r19,hi8(1)
 1697 0a7c FC01      		movw r30,r24
 1698 0a7e 3183      		std Z+1,r19
 1699 0a80 2083      		st Z,r18
 1700 0a82 00C0      		rjmp .L84
 1701               	.L93:
 1702               	.LM198:
 1703 0a84 C330      		cpi r28,3
 1704 0a86 D105      		cpc r29,__zero_reg__
 1705 0a88 01F0      		breq .+2
 1706 0a8a 00C0      		rjmp .L94
 1707               	.LM199:
 1708 0a8c 8091 0000 		lds r24,currx
 1709 0a90 9091 0000 		lds r25,(currx)+1
 1710 0a94 8C01      		movw r16,r24
 1711 0a96 0150      		subi r16,lo8(-(-1))
 1712 0a98 1040      		sbci r17,hi8(-(-1))
 1713 0a9a 4091 0000 		lds r20,curry
 1714 0a9e 5091 0000 		lds r21,(curry)+1
 1715 0aa2 D801      		movw r26,r16
 1716 0aa4 63E0      		ldi r22,3
 1717 0aa6 AA0F      	1:	lsl r26
 1718 0aa8 BB1F      		rol r27
 1719 0aaa 6A95      		dec r22
 1720 0aac 01F4      		brne 1b
 1721 0aae A40F      		add r26,r20
 1722 0ab0 B51F      		adc r27,r21
 1723 0ab2 FD01      		movw r30,r26
 1724 0ab4 33E0      		ldi r19,3
 1725 0ab6 EE0F      	1:	lsl r30
 1726 0ab8 FF1F      		rol r31
 1727 0aba 3A95      		dec r19
 1728 0abc 01F4      		brne 1b
 1729 0abe E050      		subi r30,lo8(-(a+2))
 1730 0ac0 F040      		sbci r31,hi8(-(a+2))
 1731 0ac2 9183      		std Z+1,r25
 1732 0ac4 8083      		st Z,r24
 1733               	.LM200:
 1734 0ac6 BA01      		movw r22,r20
 1735 0ac8 6F5F      		subi r22,lo8(-(1))
 1736 0aca 7F4F      		sbci r23,hi8(-(1))
 1737 0acc 23E0      		ldi r18,3
 1738 0ace AA0F      	1:	lsl r26
 1739 0ad0 BB1F      		rol r27
 1740 0ad2 2A95      		dec r18
 1741 0ad4 01F4      		brne 1b
 1742 0ad6 FD01      		movw r30,r26
 1743 0ad8 E050      		subi r30,lo8(-(a+4))
 1744 0ada F040      		sbci r31,hi8(-(a+4))
 1745 0adc 7183      		std Z+1,r23
 1746 0ade 6083      		st Z,r22
 1747               	.LM201:
 1748 0ae0 A050      		subi r26,lo8(-(a))
 1749 0ae2 B040      		sbci r27,hi8(-(a))
 1750 0ae4 21E0      		ldi r18,lo8(1)
 1751 0ae6 30E0      		ldi r19,hi8(1)
 1752 0ae8 1796      		adiw r26,6+1
 1753 0aea 3C93      		st X,r19
 1754 0aec 2E93      		st -X,r18
 1755 0aee 1697      		sbiw r26,6
 1756               	.LM202:
 1757 0af0 E3E0      		ldi r30,3
 1758 0af2 880F      	1:	lsl r24
 1759 0af4 991F      		rol r25
 1760 0af6 EA95      		dec r30
 1761 0af8 01F4      		brne 1b
 1762 0afa 860F      		add r24,r22
 1763 0afc 971F      		adc r25,r23
 1764 0afe FC01      		movw r30,r24
 1765 0b00 33E0      		ldi r19,3
 1766 0b02 EE0F      	1:	lsl r30
 1767 0b04 FF1F      		rol r31
 1768 0b06 3A95      		dec r19
 1769 0b08 01F4      		brne 1b
 1770 0b0a E050      		subi r30,lo8(-(a+2))
 1771 0b0c F040      		sbci r31,hi8(-(a+2))
 1772 0b0e 1183      		std Z+1,r17
 1773 0b10 0083      		st Z,r16
 1774               	.LM203:
 1775 0b12 23E0      		ldi r18,3
 1776 0b14 880F      	1:	lsl r24
 1777 0b16 991F      		rol r25
 1778 0b18 2A95      		dec r18
 1779 0b1a 01F4      		brne 1b
 1780 0b1c FC01      		movw r30,r24
 1781 0b1e E050      		subi r30,lo8(-(a+4))
 1782 0b20 F040      		sbci r31,hi8(-(a+4))
 1783 0b22 5183      		std Z+1,r21
 1784 0b24 4083      		st Z,r20
 1785 0b26 00C0      		rjmp .L102
 1786               	.L94:
 1787               	.LM204:
 1788 0b28 2497      		sbiw r28,4
 1789 0b2a 01F0      		breq .+2
 1790 0b2c 00C0      		rjmp .L84
 1791               	.LM205:
 1792 0b2e 4091 0000 		lds r20,curry
 1793 0b32 5091 0000 		lds r21,(curry)+1
 1794 0b36 8A01      		movw r16,r20
 1795 0b38 0150      		subi r16,lo8(-(-1))
 1796 0b3a 1040      		sbci r17,hi8(-(-1))
 1797 0b3c 6091 0000 		lds r22,currx
 1798 0b40 7091 0000 		lds r23,(currx)+1
 1799 0b44 9B01      		movw r18,r22
 1800 0b46 2150      		subi r18,lo8(-(-1))
 1801 0b48 3040      		sbci r19,hi8(-(-1))
 1802 0b4a DB01      		movw r26,r22
 1803 0b4c 93E0      		ldi r25,3
 1804 0b4e AA0F      	1:	lsl r26
 1805 0b50 BB1F      		rol r27
 1806 0b52 9A95      		dec r25
 1807 0b54 01F4      		brne 1b
 1808 0b56 A00F      		add r26,r16
 1809 0b58 B11F      		adc r27,r17
 1810 0b5a FD01      		movw r30,r26
 1811 0b5c 83E0      		ldi r24,3
 1812 0b5e EE0F      	1:	lsl r30
 1813 0b60 FF1F      		rol r31
 1814 0b62 8A95      		dec r24
 1815 0b64 01F4      		brne 1b
 1816 0b66 E050      		subi r30,lo8(-(a+2))
 1817 0b68 F040      		sbci r31,hi8(-(a+2))
 1818 0b6a 3183      		std Z+1,r19
 1819 0b6c 2083      		st Z,r18
 1820               	.LM206:
 1821 0b6e 93E0      		ldi r25,3
 1822 0b70 AA0F      	1:	lsl r26
 1823 0b72 BB1F      		rol r27
 1824 0b74 9A95      		dec r25
 1825 0b76 01F4      		brne 1b
 1826 0b78 FD01      		movw r30,r26
 1827 0b7a E050      		subi r30,lo8(-(a+4))
 1828 0b7c F040      		sbci r31,hi8(-(a+4))
 1829 0b7e 5183      		std Z+1,r21
 1830 0b80 4083      		st Z,r20
 1831               	.LM207:
 1832 0b82 A050      		subi r26,lo8(-(a))
 1833 0b84 B040      		sbci r27,hi8(-(a))
 1834 0b86 82E0      		ldi r24,lo8(2)
 1835 0b88 90E0      		ldi r25,hi8(2)
 1836 0b8a 1796      		adiw r26,6+1
 1837 0b8c 9C93      		st X,r25
 1838 0b8e 8E93      		st -X,r24
 1839 0b90 1697      		sbiw r26,6
 1840               	.LM208:
 1841 0b92 B3E0      		ldi r27,3
 1842 0b94 220F      	1:	lsl r18
 1843 0b96 331F      		rol r19
 1844 0b98 BA95      		dec r27
 1845 0b9a 01F4      		brne 1b
 1846 0b9c 240F      		add r18,r20
 1847 0b9e 351F      		adc r19,r21
 1848 0ba0 F901      		movw r30,r18
 1849 0ba2 A3E0      		ldi r26,3
 1850 0ba4 EE0F      	1:	lsl r30
 1851 0ba6 FF1F      		rol r31
 1852 0ba8 AA95      		dec r26
 1853 0baa 01F4      		brne 1b
 1854 0bac E050      		subi r30,lo8(-(a+2))
 1855 0bae F040      		sbci r31,hi8(-(a+2))
 1856 0bb0 7183      		std Z+1,r23
 1857 0bb2 6083      		st Z,r22
 1858               	.LM209:
 1859 0bb4 53E0      		ldi r21,3
 1860 0bb6 220F      	1:	lsl r18
 1861 0bb8 331F      		rol r19
 1862 0bba 5A95      		dec r21
 1863 0bbc 01F4      		brne 1b
 1864 0bbe F901      		movw r30,r18
 1865 0bc0 E050      		subi r30,lo8(-(a+4))
 1866 0bc2 F040      		sbci r31,hi8(-(a+4))
 1867 0bc4 1183      		std Z+1,r17
 1868 0bc6 0083      		st Z,r16
 1869 0bc8 00C0      		rjmp .L101
 1870               	.L91:
 1871               	.LM210:
 1872 0bca F4E0      		ldi r31,lo8(4)
 1873 0bcc EF16      		cp r14,r31
 1874 0bce F104      		cpc r15,__zero_reg__
 1875 0bd0 01F0      		breq .+2
 1876 0bd2 00C0      		rjmp .L84
 1877               	.LM211:
 1878 0bd4 C091 0000 		lds r28,ori
 1879 0bd8 D091 0000 		lds r29,(ori)+1
 1880 0bdc C130      		cpi r28,1
 1881 0bde D105      		cpc r29,__zero_reg__
 1882 0be0 01F0      		breq .+2
 1883 0be2 00C0      		rjmp .L95
 1884               	.LM212:
 1885 0be4 6091 0000 		lds r22,curry
 1886 0be8 7091 0000 		lds r23,(curry)+1
 1887 0bec 8091 0000 		lds r24,currx
 1888 0bf0 9091 0000 		lds r25,(currx)+1
 1889 0bf4 9C01      		movw r18,r24
 1890 0bf6 2F5F      		subi r18,lo8(-(1))
 1891 0bf8 3F4F      		sbci r19,hi8(-(1))
 1892 0bfa DC01      		movw r26,r24
 1893 0bfc 43E0      		ldi r20,3
 1894 0bfe AA0F      	1:	lsl r26
 1895 0c00 BB1F      		rol r27
 1896 0c02 4A95      		dec r20
 1897 0c04 01F4      		brne 1b
 1898 0c06 A60F      		add r26,r22
 1899 0c08 B71F      		adc r27,r23
 1900 0c0a FD01      		movw r30,r26
 1901 0c0c 03E0      		ldi r16,3
 1902 0c0e EE0F      	1:	lsl r30
 1903 0c10 FF1F      		rol r31
 1904 0c12 0A95      		dec r16
 1905 0c14 01F4      		brne 1b
 1906 0c16 E050      		subi r30,lo8(-(a+2))
 1907 0c18 F040      		sbci r31,hi8(-(a+2))
 1908 0c1a 3183      		std Z+1,r19
 1909 0c1c 2083      		st Z,r18
 1910               	.LM213:
 1911 0c1e AB01      		movw r20,r22
 1912 0c20 4150      		subi r20,lo8(-(-1))
 1913 0c22 5040      		sbci r21,hi8(-(-1))
 1914 0c24 13E0      		ldi r17,3
 1915 0c26 AA0F      	1:	lsl r26
 1916 0c28 BB1F      		rol r27
 1917 0c2a 1A95      		dec r17
 1918 0c2c 01F4      		brne 1b
 1919 0c2e FD01      		movw r30,r26
 1920 0c30 E050      		subi r30,lo8(-(a+4))
 1921 0c32 F040      		sbci r31,hi8(-(a+4))
 1922 0c34 5183      		std Z+1,r21
 1923 0c36 4083      		st Z,r20
 1924               	.LM214:
 1925 0c38 A050      		subi r26,lo8(-(a))
 1926 0c3a B040      		sbci r27,hi8(-(a))
 1927 0c3c 1796      		adiw r26,6+1
 1928 0c3e DC93      		st X,r29
 1929 0c40 CE93      		st -X,r28
 1930 0c42 1697      		sbiw r26,6
 1931               	.LM215:
 1932 0c44 E3E0      		ldi r30,3
 1933 0c46 220F      	1:	lsl r18
 1934 0c48 331F      		rol r19
 1935 0c4a EA95      		dec r30
 1936 0c4c 01F4      		brne 1b
 1937 0c4e 240F      		add r18,r20
 1938 0c50 351F      		adc r19,r21
 1939 0c52 F901      		movw r30,r18
 1940 0c54 53E0      		ldi r21,3
 1941 0c56 EE0F      	1:	lsl r30
 1942 0c58 FF1F      		rol r31
 1943 0c5a 5A95      		dec r21
 1944 0c5c 01F4      		brne 1b
 1945 0c5e E050      		subi r30,lo8(-(a+2))
 1946 0c60 F040      		sbci r31,hi8(-(a+2))
 1947 0c62 9183      		std Z+1,r25
 1948 0c64 8083      		st Z,r24
 1949 0c66 00C0      		rjmp .L103
 1950               	.L95:
 1951               	.LM216:
 1952 0c68 C230      		cpi r28,2
 1953 0c6a D105      		cpc r29,__zero_reg__
 1954 0c6c 01F0      		breq .+2
 1955 0c6e 00C0      		rjmp .L96
 1956               	.LM217:
 1957 0c70 6091 0000 		lds r22,curry
 1958 0c74 7091 0000 		lds r23,(curry)+1
 1959 0c78 8091 0000 		lds r24,currx
 1960 0c7c 9091 0000 		lds r25,(currx)+1
 1961 0c80 9C01      		movw r18,r24
 1962 0c82 2F5F      		subi r18,lo8(-(1))
 1963 0c84 3F4F      		sbci r19,hi8(-(1))
 1964               	.L107:
 1965 0c86 DC01      		movw r26,r24
 1966 0c88 43E0      		ldi r20,3
 1967 0c8a AA0F      	1:	lsl r26
 1968 0c8c BB1F      		rol r27
 1969 0c8e 4A95      		dec r20
 1970 0c90 01F4      		brne 1b
 1971 0c92 A60F      		add r26,r22
 1972 0c94 B71F      		adc r27,r23
 1973 0c96 FD01      		movw r30,r26
 1974 0c98 03E0      		ldi r16,3
 1975 0c9a EE0F      	1:	lsl r30
 1976 0c9c FF1F      		rol r31
 1977 0c9e 0A95      		dec r16
 1978 0ca0 01F4      		brne 1b
 1979 0ca2 E050      		subi r30,lo8(-(a+2))
 1980 0ca4 F040      		sbci r31,hi8(-(a+2))
 1981 0ca6 3183      		std Z+1,r19
 1982 0ca8 2083      		st Z,r18
 1983               	.LM218:
 1984 0caa AB01      		movw r20,r22
 1985 0cac 4F5F      		subi r20,lo8(-(1))
 1986 0cae 5F4F      		sbci r21,hi8(-(1))
 1987 0cb0 13E0      		ldi r17,3
 1988 0cb2 AA0F      	1:	lsl r26
 1989 0cb4 BB1F      		rol r27
 1990 0cb6 1A95      		dec r17
 1991 0cb8 01F4      		brne 1b
 1992 0cba FD01      		movw r30,r26
 1993 0cbc E050      		subi r30,lo8(-(a+4))
 1994 0cbe F040      		sbci r31,hi8(-(a+4))
 1995 0cc0 5183      		std Z+1,r21
 1996 0cc2 4083      		st Z,r20
 1997               	.LM219:
 1998 0cc4 A050      		subi r26,lo8(-(a))
 1999 0cc6 B040      		sbci r27,hi8(-(a))
 2000 0cc8 1796      		adiw r26,6+1
 2001 0cca DC93      		st X,r29
 2002 0ccc CE93      		st -X,r28
 2003 0cce 1697      		sbiw r26,6
 2004               	.LM220:
 2005 0cd0 E3E0      		ldi r30,3
 2006 0cd2 220F      	1:	lsl r18
 2007 0cd4 331F      		rol r19
 2008 0cd6 EA95      		dec r30
 2009 0cd8 01F4      		brne 1b
 2010 0cda 240F      		add r18,r20
 2011 0cdc 351F      		adc r19,r21
 2012 0cde F901      		movw r30,r18
 2013 0ce0 43E0      		ldi r20,3
 2014 0ce2 EE0F      	1:	lsl r30
 2015 0ce4 FF1F      		rol r31
 2016 0ce6 4A95      		dec r20
 2017 0ce8 01F4      		brne 1b
 2018 0cea E050      		subi r30,lo8(-(a+2))
 2019 0cec F040      		sbci r31,hi8(-(a+2))
 2020 0cee 9183      		std Z+1,r25
 2021 0cf0 8083      		st Z,r24
 2022 0cf2 00C0      		rjmp .L106
 2023               	.L96:
 2024               	.LM221:
 2025 0cf4 C330      		cpi r28,3
 2026 0cf6 D105      		cpc r29,__zero_reg__
 2027 0cf8 01F0      		breq .+2
 2028 0cfa 00C0      		rjmp .L97
 2029               	.LM222:
 2030 0cfc 6091 0000 		lds r22,curry
 2031 0d00 7091 0000 		lds r23,(curry)+1
 2032 0d04 4091 0000 		lds r20,currx
 2033 0d08 5091 0000 		lds r21,(currx)+1
 2034 0d0c 9A01      		movw r18,r20
 2035 0d0e 2150      		subi r18,lo8(-(-1))
 2036 0d10 3040      		sbci r19,hi8(-(-1))
 2037 0d12 DA01      		movw r26,r20
 2038 0d14 03E0      		ldi r16,3
 2039 0d16 AA0F      	1:	lsl r26
 2040 0d18 BB1F      		rol r27
 2041 0d1a 0A95      		dec r16
 2042 0d1c 01F4      		brne 1b
 2043 0d1e A60F      		add r26,r22
 2044 0d20 B71F      		adc r27,r23
 2045 0d22 FD01      		movw r30,r26
 2046 0d24 13E0      		ldi r17,3
 2047 0d26 EE0F      	1:	lsl r30
 2048 0d28 FF1F      		rol r31
 2049 0d2a 1A95      		dec r17
 2050 0d2c 01F4      		brne 1b
 2051 0d2e E050      		subi r30,lo8(-(a+2))
 2052 0d30 F040      		sbci r31,hi8(-(a+2))
 2053 0d32 3183      		std Z+1,r19
 2054 0d34 2083      		st Z,r18
 2055               	.LM223:
 2056 0d36 8B01      		movw r16,r22
 2057 0d38 0F5F      		subi r16,lo8(-(1))
 2058 0d3a 1F4F      		sbci r17,hi8(-(1))
 2059 0d3c 93E0      		ldi r25,3
 2060 0d3e AA0F      	1:	lsl r26
 2061 0d40 BB1F      		rol r27
 2062 0d42 9A95      		dec r25
 2063 0d44 01F4      		brne 1b
 2064 0d46 FD01      		movw r30,r26
 2065 0d48 E050      		subi r30,lo8(-(a+4))
 2066 0d4a F040      		sbci r31,hi8(-(a+4))
 2067 0d4c 1183      		std Z+1,r17
 2068 0d4e 0083      		st Z,r16
 2069               	.LM224:
 2070 0d50 A050      		subi r26,lo8(-(a))
 2071 0d52 B040      		sbci r27,hi8(-(a))
 2072 0d54 81E0      		ldi r24,lo8(1)
 2073 0d56 90E0      		ldi r25,hi8(1)
 2074 0d58 1796      		adiw r26,6+1
 2075 0d5a 9C93      		st X,r25
 2076 0d5c 8E93      		st -X,r24
 2077 0d5e 1697      		sbiw r26,6
 2078               	.LM225:
 2079 0d60 B3E0      		ldi r27,3
 2080 0d62 220F      	1:	lsl r18
 2081 0d64 331F      		rol r19
 2082 0d66 BA95      		dec r27
 2083 0d68 01F4      		brne 1b
 2084 0d6a 200F      		add r18,r16
 2085 0d6c 311F      		adc r19,r17
 2086 0d6e F901      		movw r30,r18
 2087 0d70 A3E0      		ldi r26,3
 2088 0d72 EE0F      	1:	lsl r30
 2089 0d74 FF1F      		rol r31
 2090 0d76 AA95      		dec r26
 2091 0d78 01F4      		brne 1b
 2092 0d7a E050      		subi r30,lo8(-(a+2))
 2093 0d7c F040      		sbci r31,hi8(-(a+2))
 2094 0d7e 5183      		std Z+1,r21
 2095 0d80 4083      		st Z,r20
 2096               	.L103:
 2097               	.LM226:
 2098 0d82 93E0      		ldi r25,3
 2099 0d84 220F      	1:	lsl r18
 2100 0d86 331F      		rol r19
 2101 0d88 9A95      		dec r25
 2102 0d8a 01F4      		brne 1b
 2103 0d8c F901      		movw r30,r18
 2104 0d8e E050      		subi r30,lo8(-(a+4))
 2105 0d90 F040      		sbci r31,hi8(-(a+4))
 2106 0d92 7183      		std Z+1,r23
 2107 0d94 6083      		st Z,r22
 2108               	.LM227:
 2109 0d96 2050      		subi r18,lo8(-(a))
 2110 0d98 3040      		sbci r19,hi8(-(a))
 2111 0d9a 82E0      		ldi r24,lo8(2)
 2112 0d9c 90E0      		ldi r25,hi8(2)
 2113 0d9e E901      		movw r28,r18
 2114 0da0 9F83      		std Y+7,r25
 2115 0da2 8E83      		std Y+6,r24
 2116 0da4 00C0      		rjmp .L84
 2117               	.L97:
 2118               	.LM228:
 2119 0da6 2497      		sbiw r28,4
 2120 0da8 01F0      		breq .+2
 2121 0daa 00C0      		rjmp .L84
 2122               	.LM229:
 2123 0dac 6091 0000 		lds r22,curry
 2124 0db0 7091 0000 		lds r23,(curry)+1
 2125 0db4 4091 0000 		lds r20,currx
 2126 0db8 5091 0000 		lds r21,(currx)+1
 2127 0dbc 9A01      		movw r18,r20
 2128 0dbe 2150      		subi r18,lo8(-(-1))
 2129 0dc0 3040      		sbci r19,hi8(-(-1))
 2130 0dc2 DA01      		movw r26,r20
 2131 0dc4 03E0      		ldi r16,3
 2132 0dc6 AA0F      	1:	lsl r26
 2133 0dc8 BB1F      		rol r27
 2134 0dca 0A95      		dec r16
 2135 0dcc 01F4      		brne 1b
 2136 0dce A60F      		add r26,r22
 2137 0dd0 B71F      		adc r27,r23
 2138 0dd2 FD01      		movw r30,r26
 2139 0dd4 13E0      		ldi r17,3
 2140 0dd6 EE0F      	1:	lsl r30
 2141 0dd8 FF1F      		rol r31
 2142 0dda 1A95      		dec r17
 2143 0ddc 01F4      		brne 1b
 2144 0dde E050      		subi r30,lo8(-(a+2))
 2145 0de0 F040      		sbci r31,hi8(-(a+2))
 2146 0de2 3183      		std Z+1,r19
 2147 0de4 2083      		st Z,r18
 2148               	.LM230:
 2149 0de6 8B01      		movw r16,r22
 2150 0de8 0150      		subi r16,lo8(-(-1))
 2151 0dea 1040      		sbci r17,hi8(-(-1))
 2152 0dec 93E0      		ldi r25,3
 2153 0dee AA0F      	1:	lsl r26
 2154 0df0 BB1F      		rol r27
 2155 0df2 9A95      		dec r25
 2156 0df4 01F4      		brne 1b
 2157 0df6 FD01      		movw r30,r26
 2158 0df8 E050      		subi r30,lo8(-(a+4))
 2159 0dfa F040      		sbci r31,hi8(-(a+4))
 2160 0dfc 1183      		std Z+1,r17
 2161 0dfe 0083      		st Z,r16
 2162               	.LM231:
 2163 0e00 A050      		subi r26,lo8(-(a))
 2164 0e02 B040      		sbci r27,hi8(-(a))
 2165 0e04 82E0      		ldi r24,lo8(2)
 2166 0e06 90E0      		ldi r25,hi8(2)
 2167 0e08 1796      		adiw r26,6+1
 2168 0e0a 9C93      		st X,r25
 2169 0e0c 8E93      		st -X,r24
 2170 0e0e 1697      		sbiw r26,6
 2171               	.LM232:
 2172 0e10 B3E0      		ldi r27,3
 2173 0e12 220F      	1:	lsl r18
 2174 0e14 331F      		rol r19
 2175 0e16 BA95      		dec r27
 2176 0e18 01F4      		brne 1b
 2177 0e1a 200F      		add r18,r16
 2178 0e1c 311F      		adc r19,r17
 2179 0e1e F901      		movw r30,r18
 2180 0e20 A3E0      		ldi r26,3
 2181 0e22 EE0F      	1:	lsl r30
 2182 0e24 FF1F      		rol r31
 2183 0e26 AA95      		dec r26
 2184 0e28 01F4      		brne 1b
 2185 0e2a E050      		subi r30,lo8(-(a+2))
 2186 0e2c F040      		sbci r31,hi8(-(a+2))
 2187 0e2e 5183      		std Z+1,r21
 2188 0e30 4083      		st Z,r20
 2189               	.L106:
 2190               	.LM233:
 2191 0e32 E3E0      		ldi r30,3
 2192 0e34 220F      	1:	lsl r18
 2193 0e36 331F      		rol r19
 2194 0e38 EA95      		dec r30
 2195 0e3a 01F4      		brne 1b
 2196 0e3c F901      		movw r30,r18
 2197 0e3e E050      		subi r30,lo8(-(a+4))
 2198 0e40 F040      		sbci r31,hi8(-(a+4))
 2199 0e42 7183      		std Z+1,r23
 2200 0e44 6083      		st Z,r22
 2201               	.L101:
 2202               	.LM234:
 2203 0e46 2050      		subi r18,lo8(-(a))
 2204 0e48 3040      		sbci r19,hi8(-(a))
 2205 0e4a 81E0      		ldi r24,lo8(1)
 2206 0e4c 90E0      		ldi r25,hi8(1)
 2207 0e4e F901      		movw r30,r18
 2208 0e50 9783      		std Z+7,r25
 2209 0e52 8683      		std Z+6,r24
 2210               	.L84:
 2211               	.LM235:
 2212 0e54 1092 0000 		sts (bridgeflag)+1,__zero_reg__
 2213 0e58 1092 0000 		sts bridgeflag,__zero_reg__
 2214               	/* epilogue start */
 2215               	.LM236:
 2216 0e5c DF91      		pop r29
 2217 0e5e CF91      		pop r28
 2218 0e60 1F91      		pop r17
 2219 0e62 0F91      		pop r16
 2220 0e64 FF90      		pop r15
 2221 0e66 EF90      		pop r14
 2222 0e68 0895      		ret
 2223               	.LFE23:
 2225               	.global	conventionmatch
 2227               	conventionmatch:
 2228               	.LFB24:
 2229               	.LM237:
 2230 0e6a CF93      		push r28
 2231 0e6c DF93      		push r29
 2232               	/* prologue: function */
 2233               	/* frame size = 0 */
 2234               	.LM238:
 2235 0e6e 8091 0000 		lds r24,jt
 2236 0e72 9091 0000 		lds r25,(jt)+1
 2237 0e76 21E0      		ldi r18,lo8(1)
 2238 0e78 30E0      		ldi r19,hi8(1)
 2239               	.LM239:
 2240 0e7a 6CE3      		ldi r22,lo8(60)
 2241 0e7c 70E0      		ldi r23,hi8(60)
 2242 0e7e 00C0      		rjmp .L109
 2243               	.L112:
 2244 0e80 F901      		movw r30,r18
 2245 0e82 96E0      		ldi r25,6
 2246 0e84 EE0F      	1:	lsl r30
 2247 0e86 FF1F      		rol r31
 2248 0e88 9A95      		dec r25
 2249 0e8a 01F4      		brne 1b
 2250 0e8c E050      		subi r30,lo8(-(a))
 2251 0e8e F040      		sbci r31,hi8(-(a))
 2252 0e90 E901      		movw r28,r18
 2253 0e92 CC0F      		lsl r28
 2254 0e94 DD1F      		rol r29
 2255 0e96 C901      		movw r24,r18
 2256 0e98 B3E0      		ldi r27,3
 2257 0e9a 880F      	1:	lsl r24
 2258 0e9c 991F      		rol r25
 2259 0e9e BA95      		dec r27
 2260 0ea0 01F4      		brne 1b
 2261 0ea2 C80F      		add r28,r24
 2262 0ea4 D91F      		adc r29,r25
 2263 0ea6 CC0F      		lsl r28
 2264 0ea8 DD1F      		rol r29
 2265 0eaa C050      		subi r28,lo8(-(test+2))
 2266 0eac D040      		sbci r29,hi8(-(test+2))
 2267 0eae 269F      		mul r18,r22
 2268 0eb0 D001      		movw r26,r0
 2269 0eb2 279F      		mul r18,r23
 2270 0eb4 B00D      		add r27,r0
 2271 0eb6 369F      		mul r19,r22
 2272 0eb8 B00D      		add r27,r0
 2273 0eba 1124      		clr r1
 2274 0ebc A050      		subi r26,lo8(-(bridge))
 2275 0ebe B040      		sbci r27,hi8(-(bridge))
 2276 0ec0 40E0      		ldi r20,lo8(0)
 2277 0ec2 50E0      		ldi r21,hi8(0)
 2278 0ec4 00C0      		rjmp .L110
 2279               	.L111:
 2280               	.LM240:
 2281 0ec6 E854      		subi r30,lo8(-(-72))
 2282 0ec8 F040      		sbci r31,hi8(-(-72))
 2283 0eca 8191      		ld r24,Z+
 2284 0ecc 9191      		ld r25,Z+
 2285 0ece 8993      		st Y+,r24
 2286 0ed0 9993      		st Y+,r25
 2287               	.LM241:
 2288 0ed2 8191      		ld r24,Z+
 2289 0ed4 9191      		ld r25,Z+
 2290 0ed6 1196      		adiw r26,1
 2291 0ed8 9C93      		st X,r25
 2292 0eda 8E93      		st -X,r24
 2293               	.LM242:
 2294 0edc 8191      		ld r24,Z+
 2295 0ede 9191      		ld r25,Z+
 2296 0ee0 1396      		adiw r26,2+1
 2297 0ee2 9C93      		st X,r25
 2298 0ee4 8E93      		st -X,r24
 2299 0ee6 1297      		sbiw r26,2
 2300               	.LM243:
 2301 0ee8 8081      		ld r24,Z
 2302 0eea 9181      		ldd r25,Z+1
 2303 0eec EE5B      		subi r30,lo8(-(66))
 2304 0eee FF4F      		sbci r31,hi8(-(66))
 2305 0ef0 1596      		adiw r26,4+1
 2306 0ef2 9C93      		st X,r25
 2307 0ef4 8E93      		st -X,r24
 2308 0ef6 1497      		sbiw r26,4
 2309               	.L110:
 2310 0ef8 4F5F      		subi r20,lo8(-(1))
 2311 0efa 5F4F      		sbci r21,hi8(-(1))
 2312 0efc 3896      		adiw r30,8
 2313 0efe 1696      		adiw r26,6
 2314               	.LM244:
 2315 0f00 4930      		cpi r20,9
 2316 0f02 5105      		cpc r21,__zero_reg__
 2317 0f04 01F4      		brne .L111
 2318 0f06 2F5F      		subi r18,lo8(-(1))
 2319 0f08 3F4F      		sbci r19,hi8(-(1))
 2320 0f0a 89E0      		ldi r24,lo8(9)
 2321 0f0c 90E0      		ldi r25,hi8(9)
 2322               	.L109:
 2323               	.LM245:
 2324 0f0e 2930      		cpi r18,9
 2325 0f10 3105      		cpc r19,__zero_reg__
 2326 0f12 00F4      		brsh .+2
 2327 0f14 00C0      		rjmp .L112
 2328 0f16 9093 0000 		sts (jt)+1,r25
 2329 0f1a 8093 0000 		sts jt,r24
 2330 0f1e 3093 0000 		sts (it)+1,r19
 2331 0f22 2093 0000 		sts it,r18
 2332               	/* epilogue start */
 2333               	.LM246:
 2334 0f26 DF91      		pop r29
 2335 0f28 CF91      		pop r28
 2336 0f2a 0895      		ret
 2337               	.LFE24:
 2339               	.global	turn
 2341               	turn:
 2342               	.LFB25:
 2343               	.LM247:
 2344               	.LVL50:
 2345               	/* prologue: function */
 2346               	/* frame size = 0 */
 2347               	.LM248:
 2348 0f2c 8E34      		cpi r24,lo8(78)
 2349 0f2e 01F4      		brne .+2
 2350 0f30 00C0      		rjmp .L117
 2351 0f32 8F34      		cpi r24,lo8(79)
 2352 0f34 00F4      		brsh .L120
 2353 0f36 8C34      		cpi r24,lo8(76)
 2354 0f38 01F0      		breq .+2
 2355 0f3a 00C0      		rjmp .L141
 2356 0f3c 00C0      		rjmp .L165
 2357               	.L120:
 2358 0f3e 8235      		cpi r24,lo8(82)
 2359 0f40 01F0      		breq .L118
 2360 0f42 8535      		cpi r24,lo8(85)
 2361 0f44 01F0      		breq .+2
 2362 0f46 00C0      		rjmp .L141
 2363 0f48 00C0      		rjmp .L166
 2364               	.L165:
 2365               	.LM249:
 2366 0f4a 9498      		cbi 50-32,4
 2367               	.LM250:
 2368 0f4c 959A      		sbi 50-32,5
 2369               	.LM251:
 2370 0f4e 969A      		sbi 50-32,6
 2371               	.LM252:
 2372 0f50 9798      		cbi 50-32,7
 2373 0f52 8CEA      		ldi r24,lo8(3500)
 2374 0f54 9DE0      		ldi r25,hi8(3500)
 2375               	.LVL51:
 2376               	.LBB287:
 2377               	.LBB288:
 2378               	.LBB289:
 2379               	.LBB290:
 2380               	.LM253:
 2381 0f56 20E9      		ldi r18,lo8(400)
 2382 0f58 31E0      		ldi r19,hi8(400)
 2383               	.L121:
 2384 0f5a F901      		movw r30,r18
 2385               	.LVL52:
 2386               	/* #APP */
 2387               	 ;  105 "c:/winavr-20100110/lib/gcc/../../avr/include/util/delay_basic.h" 1
 2388 0f5c 3197      		1: sbiw r30,1
 2389 0f5e 01F4      		brne 1b
 2390               	 ;  0 "" 2
 2391               	/* #NOAPP */
 2392               	.LBE290:
 2393               	.LBE289:
 2394               	.LM254:
 2395 0f60 0197      		sbiw r24,1
 2396               	.LM255:
 2397 0f62 01F4      		brne .L121
 2398               	.L146:
 2399               	.LBE288:
 2400               	.LBE287:
 2401               	.LM256:
 2402 0f64 CB9B      		sbis 57-32,3
 2403 0f66 00C0      		rjmp .L146
 2404 0f68 84EF      		ldi r24,lo8(500)
 2405 0f6a 91E0      		ldi r25,hi8(500)
 2406               	.LVL53:
 2407               	.LBB291:
 2408               	.LBB292:
 2409               	.LBB293:
 2410               	.LBB294:
 2411               	.LM257:
 2412 0f6c 20E9      		ldi r18,lo8(400)
 2413 0f6e 31E0      		ldi r19,hi8(400)
 2414               	.L123:
 2415 0f70 F901      		movw r30,r18
 2416               	.LVL54:
 2417               	/* #APP */
 2418               	 ;  105 "c:/winavr-20100110/lib/gcc/../../avr/include/util/delay_basic.h" 1
 2419 0f72 3197      		1: sbiw r30,1
 2420 0f74 01F4      		brne 1b
 2421               	 ;  0 "" 2
 2422               	/* #NOAPP */
 2423               	.LBE294:
 2424               	.LBE293:
 2425               	.LM258:
 2426 0f76 0197      		sbiw r24,1
 2427               	.LM259:
 2428 0f78 01F4      		brne .L123
 2429               	.LBE292:
 2430               	.LBE291:
 2431               	.LM260:
 2432 0f7a 949A      		sbi 50-32,4
 2433               	.LM261:
 2434 0f7c 959A      		sbi 50-32,5
 2435               	.LM262:
 2436 0f7e 969A      		sbi 50-32,6
 2437               	.LM263:
 2438 0f80 979A      		sbi 50-32,7
 2439               	.LM264:
 2440 0f82 8091 0000 		lds r24,ori
 2441 0f86 9091 0000 		lds r25,(ori)+1
 2442               	.LVL55:
 2443 0f8a 8230      		cpi r24,2
 2444 0f8c 9105      		cpc r25,__zero_reg__
 2445 0f8e 01F4      		brne .+2
 2446 0f90 00C0      		rjmp .L160
 2447               	.L124:
 2448               	.LM265:
 2449 0f92 8330      		cpi r24,3
 2450 0f94 9105      		cpc r25,__zero_reg__
 2451 0f96 01F4      		brne .+2
 2452 0f98 00C0      		rjmp .L162
 2453               	.L125:
 2454               	.LM266:
 2455 0f9a 8130      		cpi r24,1
 2456 0f9c 9105      		cpc r25,__zero_reg__
 2457 0f9e 01F4      		brne .+2
 2458 0fa0 00C0      		rjmp .L163
 2459               	.L126:
 2460               	.LM267:
 2461 0fa2 0497      		sbiw r24,4
 2462 0fa4 01F0      		breq .+2
 2463 0fa6 00C0      		rjmp .L141
 2464 0fa8 00C0      		rjmp .L164
 2465               	.LVL56:
 2466               	.L118:
 2467               	.LM268:
 2468 0faa 949A      		sbi 50-32,4
 2469               	.LM269:
 2470 0fac 9598      		cbi 50-32,5
 2471               	.LM270:
 2472 0fae 9698      		cbi 50-32,6
 2473               	.LM271:
 2474 0fb0 979A      		sbi 50-32,7
 2475 0fb2 8CEA      		ldi r24,lo8(3500)
 2476 0fb4 9DE0      		ldi r25,hi8(3500)
 2477               	.LVL57:
 2478               	.LBB295:
 2479               	.LBB296:
 2480               	.LBB297:
 2481               	.LBB298:
 2482               	.LM272:
 2483 0fb6 20E9      		ldi r18,lo8(400)
 2484 0fb8 31E0      		ldi r19,hi8(400)
 2485               	.L127:
 2486 0fba F901      		movw r30,r18
 2487               	.LVL58:
 2488               	/* #APP */
 2489               	 ;  105 "c:/winavr-20100110/lib/gcc/../../avr/include/util/delay_basic.h" 1
 2490 0fbc 3197      		1: sbiw r30,1
 2491 0fbe 01F4      		brne 1b
 2492               	 ;  0 "" 2
 2493               	/* #NOAPP */
 2494               	.LBE298:
 2495               	.LBE297:
 2496               	.LM273:
 2497 0fc0 0197      		sbiw r24,1
 2498               	.LM274:
 2499 0fc2 01F4      		brne .L127
 2500               	.L142:
 2501               	.LBE296:
 2502               	.LBE295:
 2503               	.LM275:
 2504 0fc4 CB9B      		sbis 57-32,3
 2505 0fc6 00C0      		rjmp .L142
 2506 0fc8 84EF      		ldi r24,lo8(500)
 2507 0fca 91E0      		ldi r25,hi8(500)
 2508               	.LVL59:
 2509               	.LBB299:
 2510               	.LBB300:
 2511               	.LBB301:
 2512               	.LBB302:
 2513               	.LM276:
 2514 0fcc 20E9      		ldi r18,lo8(400)
 2515 0fce 31E0      		ldi r19,hi8(400)
 2516               	.L129:
 2517 0fd0 F901      		movw r30,r18
 2518               	.LVL60:
 2519               	/* #APP */
 2520               	 ;  105 "c:/winavr-20100110/lib/gcc/../../avr/include/util/delay_basic.h" 1
 2521 0fd2 3197      		1: sbiw r30,1
 2522 0fd4 01F4      		brne 1b
 2523               	 ;  0 "" 2
 2524               	/* #NOAPP */
 2525               	.LBE302:
 2526               	.LBE301:
 2527               	.LM277:
 2528 0fd6 0197      		sbiw r24,1
 2529               	.LM278:
 2530 0fd8 01F4      		brne .L129
 2531               	.LBE300:
 2532               	.LBE299:
 2533               	.LM279:
 2534 0fda 949A      		sbi 50-32,4
 2535               	.LM280:
 2536 0fdc 959A      		sbi 50-32,5
 2537               	.LM281:
 2538 0fde 969A      		sbi 50-32,6
 2539               	.LM282:
 2540 0fe0 979A      		sbi 50-32,7
 2541               	.LM283:
 2542 0fe2 8091 0000 		lds r24,ori
 2543 0fe6 9091 0000 		lds r25,(ori)+1
 2544               	.LVL61:
 2545 0fea 8130      		cpi r24,1
 2546 0fec 9105      		cpc r25,__zero_reg__
 2547 0fee 01F4      		brne .+2
 2548 0ff0 00C0      		rjmp .L162
 2549               	.L130:
 2550               	.LM284:
 2551 0ff2 8230      		cpi r24,2
 2552 0ff4 9105      		cpc r25,__zero_reg__
 2553 0ff6 01F0      		breq .L164
 2554               	.L131:
 2555               	.LM285:
 2556 0ff8 8330      		cpi r24,3
 2557 0ffa 9105      		cpc r25,__zero_reg__
 2558 0ffc 01F0      		breq .L163
 2559               	.L132:
 2560               	.LM286:
 2561 0ffe 0497      		sbiw r24,4
 2562 1000 01F0      		breq .+2
 2563 1002 00C0      		rjmp .L141
 2564 1004 00C0      		rjmp .L160
 2565               	.LVL62:
 2566               	.L166:
 2567               	.LM287:
 2568 1006 949A      		sbi 50-32,4
 2569               	.LM288:
 2570 1008 9598      		cbi 50-32,5
 2571               	.LM289:
 2572 100a 9698      		cbi 50-32,6
 2573               	.LM290:
 2574 100c 979A      		sbi 50-32,7
 2575 100e 88EB      		ldi r24,lo8(3000)
 2576 1010 9BE0      		ldi r25,hi8(3000)
 2577               	.LVL63:
 2578               	.LBB303:
 2579               	.LBB304:
 2580               	.LBB305:
 2581               	.LBB306:
 2582               	.LM291:
 2583 1012 20E9      		ldi r18,lo8(400)
 2584 1014 31E0      		ldi r19,hi8(400)
 2585               	.L133:
 2586 1016 F901      		movw r30,r18
 2587               	.LVL64:
 2588               	/* #APP */
 2589               	 ;  105 "c:/winavr-20100110/lib/gcc/../../avr/include/util/delay_basic.h" 1
 2590 1018 3197      		1: sbiw r30,1
 2591 101a 01F4      		brne 1b
 2592               	 ;  0 "" 2
 2593               	/* #NOAPP */
 2594               	.LBE306:
 2595               	.LBE305:
 2596               	.LM292:
 2597 101c 0197      		sbiw r24,1
 2598               	.LM293:
 2599 101e 01F4      		brne .L133
 2600               	.L145:
 2601               	.LBE304:
 2602               	.LBE303:
 2603               	.LM294:
 2604 1020 CB9B      		sbis 57-32,3
 2605 1022 00C0      		rjmp .L145
 2606               	.L144:
 2607               	.LM295:
 2608 1024 CB99      		sbic 57-32,3
 2609 1026 00C0      		rjmp .L144
 2610               	.L143:
 2611               	.LM296:
 2612 1028 CB9B      		sbis 57-32,3
 2613 102a 00C0      		rjmp .L143
 2614 102c 84EF      		ldi r24,lo8(500)
 2615 102e 91E0      		ldi r25,hi8(500)
 2616               	.LVL65:
 2617               	.LBB307:
 2618               	.LBB308:
 2619               	.LBB309:
 2620               	.LBB310:
 2621               	.LM297:
 2622 1030 20E9      		ldi r18,lo8(400)
 2623 1032 31E0      		ldi r19,hi8(400)
 2624               	.L137:
 2625 1034 F901      		movw r30,r18
 2626               	.LVL66:
 2627               	/* #APP */
 2628               	 ;  105 "c:/winavr-20100110/lib/gcc/../../avr/include/util/delay_basic.h" 1
 2629 1036 3197      		1: sbiw r30,1
 2630 1038 01F4      		brne 1b
 2631               	 ;  0 "" 2
 2632               	/* #NOAPP */
 2633               	.LBE310:
 2634               	.LBE309:
 2635               	.LM298:
 2636 103a 0197      		sbiw r24,1
 2637               	.LM299:
 2638 103c 01F4      		brne .L137
 2639               	.LBE308:
 2640               	.LBE307:
 2641               	.LM300:
 2642 103e 949A      		sbi 50-32,4
 2643               	.LM301:
 2644 1040 959A      		sbi 50-32,5
 2645               	.LM302:
 2646 1042 969A      		sbi 50-32,6
 2647               	.LM303:
 2648 1044 979A      		sbi 50-32,7
 2649               	.LM304:
 2650 1046 8091 0000 		lds r24,ori
 2651 104a 9091 0000 		lds r25,(ori)+1
 2652               	.LVL67:
 2653 104e 8130      		cpi r24,1
 2654 1050 9105      		cpc r25,__zero_reg__
 2655 1052 01F4      		brne .L138
 2656               	.LVL68:
 2657               	.L164:
 2658               	.LM305:
 2659 1054 83E0      		ldi r24,lo8(3)
 2660 1056 90E0      		ldi r25,hi8(3)
 2661 1058 00C0      		rjmp .L158
 2662               	.LVL69:
 2663               	.L138:
 2664               	.LM306:
 2665 105a 8230      		cpi r24,2
 2666 105c 9105      		cpc r25,__zero_reg__
 2667 105e 01F4      		brne .L139
 2668               	.LVL70:
 2669               	.L163:
 2670               	.LM307:
 2671 1060 84E0      		ldi r24,lo8(4)
 2672 1062 90E0      		ldi r25,hi8(4)
 2673 1064 00C0      		rjmp .L158
 2674               	.LVL71:
 2675               	.L139:
 2676               	.LM308:
 2677 1066 8330      		cpi r24,3
 2678 1068 9105      		cpc r25,__zero_reg__
 2679 106a 01F4      		brne .L140
 2680               	.LVL72:
 2681               	.L160:
 2682               	.LM309:
 2683 106c 81E0      		ldi r24,lo8(1)
 2684 106e 90E0      		ldi r25,hi8(1)
 2685 1070 00C0      		rjmp .L158
 2686               	.LVL73:
 2687               	.L140:
 2688               	.LM310:
 2689 1072 0497      		sbiw r24,4
 2690 1074 01F4      		brne .L141
 2691               	.LVL74:
 2692               	.L162:
 2693               	.LM311:
 2694 1076 82E0      		ldi r24,lo8(2)
 2695 1078 90E0      		ldi r25,hi8(2)
 2696               	.L158:
 2697 107a 9093 0000 		sts (ori)+1,r25
 2698 107e 8093 0000 		sts ori,r24
 2699 1082 0895      		ret
 2700               	.LVL75:
 2701               	.L117:
 2702               	.LM312:
 2703 1084 949A      		sbi 50-32,4
 2704               	.LM313:
 2705 1086 959A      		sbi 50-32,5
 2706               	.LM314:
 2707 1088 969A      		sbi 50-32,6
 2708               	.LM315:
 2709 108a 979A      		sbi 50-32,7
 2710               	.LVL76:
 2711               	.L141:
 2712 108c 0895      		ret
 2713               	.LFE25:
 2715               	.global	update
 2717               	update:
 2718               	.LFB27:
 2719               	.LM316:
 2720               	/* prologue: function */
 2721               	/* frame size = 0 */
 2722               	.LM317:
 2723 108e 8091 0000 		lds r24,f2
 2724 1092 9091 0000 		lds r25,(f2)+1
 2725 1096 892B      		or r24,r25
 2726 1098 01F4      		brne .L173
 2727               	.LM318:
 2728 109a 8091 0000 		lds r24,ori
 2729 109e 9091 0000 		lds r25,(ori)+1
 2730 10a2 8130      		cpi r24,1
 2731 10a4 9105      		cpc r25,__zero_reg__
 2732 10a6 01F4      		brne .L169
 2733               	.LM319:
 2734 10a8 8091 0000 		lds r24,currx
 2735 10ac 9091 0000 		lds r25,(currx)+1
 2736 10b0 0196      		adiw r24,1
 2737 10b2 00C0      		rjmp .L174
 2738               	.L169:
 2739               	.LM320:
 2740 10b4 8230      		cpi r24,2
 2741 10b6 9105      		cpc r25,__zero_reg__
 2742 10b8 01F4      		brne .L171
 2743               	.LM321:
 2744 10ba 8091 0000 		lds r24,curry
 2745 10be 9091 0000 		lds r25,(curry)+1
 2746 10c2 0196      		adiw r24,1
 2747 10c4 00C0      		rjmp .L175
 2748               	.L171:
 2749               	.LM322:
 2750 10c6 8330      		cpi r24,3
 2751 10c8 9105      		cpc r25,__zero_reg__
 2752 10ca 01F4      		brne .L172
 2753               	.LM323:
 2754 10cc 8091 0000 		lds r24,currx
 2755 10d0 9091 0000 		lds r25,(currx)+1
 2756 10d4 0197      		sbiw r24,1
 2757               	.L174:
 2758 10d6 9093 0000 		sts (currx)+1,r25
 2759 10da 8093 0000 		sts currx,r24
 2760 10de 00C0      		rjmp .L170
 2761               	.L172:
 2762               	.LM324:
 2763 10e0 0497      		sbiw r24,4
 2764 10e2 01F4      		brne .L170
 2765               	.LM325:
 2766 10e4 8091 0000 		lds r24,curry
 2767 10e8 9091 0000 		lds r25,(curry)+1
 2768 10ec 0197      		sbiw r24,1
 2769               	.L175:
 2770 10ee 9093 0000 		sts (curry)+1,r25
 2771 10f2 8093 0000 		sts curry,r24
 2772               	.L170:
 2773               	.LM326:
 2774 10f6 81E0      		ldi r24,lo8(1)
 2775 10f8 90E0      		ldi r25,hi8(1)
 2776 10fa 9093 0000 		sts (f2)+1,r25
 2777 10fe 8093 0000 		sts f2,r24
 2778               	.LM327:
 2779 1102 82B3      		in r24,50-32
 2780 1104 92E0      		ldi r25,lo8(2)
 2781 1106 8927      		eor r24,r25
 2782 1108 82BB      		out 50-32,r24
 2783               	.L173:
 2784 110a 0895      		ret
 2785               	.LFE27:
 2787               	.global	decide
 2789               	decide:
 2790               	.LFB28:
 2791               	.LM328:
 2792               	/* prologue: function */
 2793               	/* frame size = 0 */
 2794               	.LM329:
 2795 110c 8091 0000 		lds r24,currx
 2796 1110 9091 0000 		lds r25,(currx)+1
 2797 1114 0097      		sbiw r24,0
 2798 1116 01F4      		brne .L177
 2799 1118 8091 0000 		lds r24,curry
 2800 111c 9091 0000 		lds r25,(curry)+1
 2801 1120 0797      		sbiw r24,7
 2802 1122 01F0      		breq .L178
 2803 1124 82E5      		ldi r24,lo8(82)
 2804 1126 0895      		ret
 2805               	.L178:
 2806 1128 8EE4      		ldi r24,lo8(78)
 2807 112a 0895      		ret
 2808               	.L177:
 2809               	.LM330:
 2810 112c 0797      		sbiw r24,7
 2811 112e 01F0      		breq .L180
 2812 1130 83E5      		ldi r24,lo8(83)
 2813 1132 0895      		ret
 2814               	.L180:
 2815 1134 8CE4      		ldi r24,lo8(76)
 2816               	.LM331:
 2817 1136 0895      		ret
 2818               	.LFE28:
 2820               	.global	inch
 2822               	inch:
 2823               	.LFB29:
 2824               	.LM332:
 2825               	/* prologue: function */
 2826               	/* frame size = 0 */
 2827               	.LM333:
 2828 1138 949A      		sbi 50-32,4
 2829               	.LM334:
 2830 113a 9598      		cbi 50-32,5
 2831               	.LM335:
 2832 113c 969A      		sbi 50-32,6
 2833               	.LM336:
 2834 113e 9798      		cbi 50-32,7
 2835 1140 84EC      		ldi r24,lo8(2500)
 2836 1142 99E0      		ldi r25,hi8(2500)
 2837               	.LVL77:
 2838               	.LBB311:
 2839               	.LBB312:
 2840               	.LBB313:
 2841               	.LBB314:
 2842               	.LM337:
 2843 1144 20E9      		ldi r18,lo8(400)
 2844 1146 31E0      		ldi r19,hi8(400)
 2845               	.L183:
 2846 1148 F901      		movw r30,r18
 2847               	.LVL78:
 2848               	/* #APP */
 2849               	 ;  105 "c:/winavr-20100110/lib/gcc/../../avr/include/util/delay_basic.h" 1
 2850 114a 3197      		1: sbiw r30,1
 2851 114c 01F4      		brne 1b
 2852               	 ;  0 "" 2
 2853               	/* #NOAPP */
 2854               	.LBE314:
 2855               	.LBE313:
 2856               	.LM338:
 2857 114e 0197      		sbiw r24,1
 2858               	.LM339:
 2859 1150 01F4      		brne .L183
 2860               	.LBE312:
 2861               	.LBE311:
 2862               	.LM340:
 2863 1152 949A      		sbi 50-32,4
 2864               	.LM341:
 2865 1154 959A      		sbi 50-32,5
 2866               	.LM342:
 2867 1156 969A      		sbi 50-32,6
 2868               	.LM343:
 2869 1158 979A      		sbi 50-32,7
 2870               	/* epilogue start */
 2871               	.LM344:
 2872 115a 0895      		ret
 2873               	.LFE29:
 2875               	.global	inchb
 2877               	inchb:
 2878               	.LFB30:
 2879               	.LM345:
 2880               	/* prologue: function */
 2881               	/* frame size = 0 */
 2882               	.LM346:
 2883 115c 9498      		cbi 50-32,4
 2884               	.LM347:
 2885 115e 959A      		sbi 50-32,5
 2886               	.LM348:
 2887 1160 9698      		cbi 50-32,6
 2888               	.LM349:
 2889 1162 979A      		sbi 50-32,7
 2890 1164 88EB      		ldi r24,lo8(3000)
 2891 1166 9BE0      		ldi r25,hi8(3000)
 2892               	.LVL79:
 2893               	.LBB315:
 2894               	.LBB316:
 2895               	.LBB317:
 2896               	.LBB318:
 2897               	.LM350:
 2898 1168 20E9      		ldi r18,lo8(400)
 2899 116a 31E0      		ldi r19,hi8(400)
 2900               	.L187:
 2901 116c F901      		movw r30,r18
 2902               	.LVL80:
 2903               	/* #APP */
 2904               	 ;  105 "c:/winavr-20100110/lib/gcc/../../avr/include/util/delay_basic.h" 1
 2905 116e 3197      		1: sbiw r30,1
 2906 1170 01F4      		brne 1b
 2907               	 ;  0 "" 2
 2908               	/* #NOAPP */
 2909               	.LBE318:
 2910               	.LBE317:
 2911               	.LM351:
 2912 1172 0197      		sbiw r24,1
 2913               	.LM352:
 2914 1174 01F4      		brne .L187
 2915               	.LBE316:
 2916               	.LBE315:
 2917               	.LM353:
 2918 1176 949A      		sbi 50-32,4
 2919               	.LM354:
 2920 1178 959A      		sbi 50-32,5
 2921               	.LM355:
 2922 117a 969A      		sbi 50-32,6
 2923               	.LM356:
 2924 117c 979A      		sbi 50-32,7
 2925               	/* epilogue start */
 2926               	.LM357:
 2927 117e 0895      		ret
 2928               	.LFE30:
 2930               	.global	linefollower1
 2932               	linefollower1:
 2933               	.LFB31:
 2934               	.LM358:
 2935               	/* prologue: function */
 2936               	/* frame size = 0 */
 2937               	.L204:
 2938               	.LM359:
 2939 1180 CA9B      		sbis 57-32,2
 2940 1182 00C0      		rjmp .L191
 2941 1184 CB9B      		sbis 57-32,3
 2942 1186 00C0      		rjmp .L191
 2943 1188 CC9B      		sbis 57-32,4
 2944 118a 00C0      		rjmp .L191
 2945               	.LM360:
 2946 118c 949A      		sbi 50-32,4
 2947               	.LM361:
 2948 118e 9598      		cbi 50-32,5
 2949 1190 00C0      		rjmp .L206
 2950               	.L191:
 2951               	.LM362:
 2952 1192 CA9B      		sbis 57-32,2
 2953 1194 00C0      		rjmp .L193
 2954 1196 CB9B      		sbis 57-32,3
 2955 1198 00C0      		rjmp .L193
 2956 119a CC99      		sbic 57-32,4
 2957 119c 00C0      		rjmp .L193
 2958               	.LM363:
 2959 119e 949A      		sbi 50-32,4
 2960               	.L208:
 2961               	.LM364:
 2962 11a0 959A      		sbi 50-32,5
 2963               	.L206:
 2964               	.LM365:
 2965 11a2 969A      		sbi 50-32,6
 2966               	.LM366:
 2967 11a4 9798      		cbi 50-32,7
 2968 11a6 00C0      		rjmp .L204
 2969               	.L193:
 2970               	.LM367:
 2971 11a8 CA99      		sbic 57-32,2
 2972 11aa 00C0      		rjmp .L194
 2973 11ac CB9B      		sbis 57-32,3
 2974 11ae 00C0      		rjmp .L194
 2975 11b0 CC9B      		sbis 57-32,4
 2976 11b2 00C0      		rjmp .L194
 2977               	.LM368:
 2978 11b4 949A      		sbi 50-32,4
 2979               	.LM369:
 2980 11b6 9598      		cbi 50-32,5
 2981               	.LM370:
 2982 11b8 969A      		sbi 50-32,6
 2983 11ba 00C0      		rjmp .L207
 2984               	.L194:
 2985               	.LM371:
 2986 11bc CA99      		sbic 57-32,2
 2987 11be 00C0      		rjmp .L195
 2988 11c0 CB99      		sbic 57-32,3
 2989 11c2 00C0      		rjmp .L195
 2990 11c4 CC9B      		sbis 57-32,4
 2991 11c6 00C0      		rjmp .L195
 2992               	.LM372:
 2993 11c8 949A      		sbi 50-32,4
 2994               	.LM373:
 2995 11ca 9598      		cbi 50-32,5
 2996               	.LM374:
 2997 11cc 9698      		cbi 50-32,6
 2998               	.L207:
 2999               	.LM375:
 3000 11ce 979A      		sbi 50-32,7
 3001 11d0 00C0      		rjmp .L204
 3002               	.L195:
 3003               	.LM376:
 3004 11d2 CA9B      		sbis 57-32,2
 3005 11d4 00C0      		rjmp .L196
 3006 11d6 CB99      		sbic 57-32,3
 3007 11d8 00C0      		rjmp .L196
 3008 11da CC99      		sbic 57-32,4
 3009 11dc 00C0      		rjmp .L196
 3010               	.LM377:
 3011 11de 9498      		cbi 50-32,4
 3012 11e0 00C0      		rjmp .L208
 3013               	.L196:
 3014               	.LM378:
 3015 11e2 C999      		sbic 57-32,1
 3016 11e4 00C0      		rjmp .L197
 3017 11e6 CA9B      		sbis 57-32,2
 3018 11e8 00C0      		rjmp .L197
 3019 11ea CB9B      		sbis 57-32,3
 3020 11ec 00C0      		rjmp .L197
 3021 11ee CC9B      		sbis 57-32,4
 3022 11f0 00C0      		rjmp .L197
 3023 11f2 CD9B      		sbis 57-32,5
 3024 11f4 00C0      		rjmp .L197
 3025               	.LM379:
 3026 11f6 82E5      		ldi r24,lo8(82)
 3027 11f8 00C0      		rjmp .L205
 3028               	.L197:
 3029               	.LM380:
 3030 11fa C99B      		sbis 57-32,1
 3031 11fc 00C0      		rjmp .L198
 3032 11fe CA9B      		sbis 57-32,2
 3033 1200 00C0      		rjmp .L198
 3034 1202 CB9B      		sbis 57-32,3
 3035 1204 00C0      		rjmp .L198
 3036 1206 CC9B      		sbis 57-32,4
 3037 1208 00C0      		rjmp .L198
 3038 120a CD99      		sbic 57-32,5
 3039 120c 00C0      		rjmp .L198
 3040               	.LM381:
 3041 120e 8CE4      		ldi r24,lo8(76)
 3042 1210 00C0      		rjmp .L205
 3043               	.L198:
 3044               	.LM382:
 3045 1212 C99B      		sbis 57-32,1
 3046 1214 00C0      		rjmp .L199
 3047 1216 CA9B      		sbis 57-32,2
 3048 1218 00C0      		rjmp .L199
 3049 121a CB9B      		sbis 57-32,3
 3050 121c 00C0      		rjmp .L199
 3051 121e CC9B      		sbis 57-32,4
 3052 1220 00C0      		rjmp .L199
 3053 1222 CD99      		sbic 57-32,5
 3054 1224 00C0      		rjmp .L201
 3055               	.L199:
 3056               	.LM383:
 3057 1226 C999      		sbic 57-32,1
 3058 1228 00C0      		rjmp .L204
 3059 122a CA99      		sbic 57-32,2
 3060 122c 00C0      		rjmp .L204
 3061 122e CB99      		sbic 57-32,3
 3062 1230 00C0      		rjmp .L204
 3063 1232 CC99      		sbic 57-32,4
 3064 1234 00C0      		rjmp .L204
 3065 1236 CD99      		sbic 57-32,5
 3066 1238 00C0      		rjmp .L204
 3067               	.LM384:
 3068 123a 85E5      		ldi r24,lo8(85)
 3069               	.L205:
 3070 123c 0E94 0000 		call turn
 3071 1240 00C0      		rjmp .L204
 3072               	.L201:
 3073 1242 0895      		ret
 3074               	.LFE31:
 3076               	.global	near
 3078               	near:
 3079               	.LFB33:
 3080               	.LM385:
 3081               	.LVL81:
 3082               	/* prologue: function */
 3083               	/* frame size = 0 */
 3084 1244 9C01      		movw r18,r24
 3085               	.LM386:
 3086 1246 FC01      		movw r30,r24
 3087 1248 EE0F      		lsl r30
 3088 124a FF1F      		rol r31
 3089               	.LVL82:
 3090 124c C901      		movw r24,r18
 3091 124e B3E0      		ldi r27,3
 3092 1250 880F      	1:	lsl r24
 3093 1252 991F      		rol r25
 3094 1254 BA95      		dec r27
 3095 1256 01F4      		brne 1b
 3096 1258 E80F      		add r30,r24
 3097 125a F91F      		adc r31,r25
 3098 125c E60F      		add r30,r22
 3099 125e F71F      		adc r31,r23
 3100 1260 EE0F      		lsl r30
 3101 1262 FF1F      		rol r31
 3102 1264 E050      		subi r30,lo8(-(test))
 3103 1266 F040      		sbci r31,hi8(-(test))
 3104 1268 8081      		ld r24,Z
 3105 126a 9181      		ldd r25,Z+1
 3106 126c 8436      		cpi r24,100
 3107 126e 9105      		cpc r25,__zero_reg__
 3108 1270 01F0      		breq .L220
 3109               	.L210:
 3110               	.LM387:
 3111 1272 8E31      		cpi r24,30
 3112 1274 9105      		cpc r25,__zero_reg__
 3113 1276 01F4      		brne .L212
 3114               	.LM388:
 3115 1278 84E6      		ldi r24,lo8(100)
 3116 127a 90E0      		ldi r25,hi8(100)
 3117               	.LVL83:
 3118               	.L221:
 3119 127c 9183      		std Z+1,r25
 3120 127e 8083      		st Z,r24
 3121               	.LVL84:
 3122               	.L220:
 3123 1280 A4E6      		ldi r26,lo8(100)
 3124 1282 B0E0      		ldi r27,hi8(100)
 3125               	.LVL85:
 3126 1284 00C0      		rjmp .L211
 3127               	.L212:
 3128               	.LM389:
 3129 1286 892B      		or r24,r25
 3130 1288 01F4      		brne .L213
 3131 128a A0E0      		ldi r26,lo8(0)
 3132 128c B0E0      		ldi r27,hi8(0)
 3133 128e 00C0      		rjmp .L211
 3134               	.L213:
 3135 1290 C901      		movw r24,r18
 3136 1292 0197      		sbiw r24,1
 3137 1294 DC01      		movw r26,r24
 3138 1296 F3E0      		ldi r31,3
 3139 1298 AA0F      	1:	lsl r26
 3140 129a BB1F      		rol r27
 3141 129c FA95      		dec r31
 3142 129e 01F4      		brne 1b
 3143 12a0 880F      		lsl r24
 3144 12a2 991F      		rol r25
 3145 12a4 A80F      		add r26,r24
 3146 12a6 B91F      		adc r27,r25
 3147 12a8 A60F      		add r26,r22
 3148 12aa B71F      		adc r27,r23
 3149 12ac AA0F      		lsl r26
 3150 12ae BB1F      		rol r27
 3151 12b0 A050      		subi r26,lo8(-(test))
 3152 12b2 B040      		sbci r27,hi8(-(test))
 3153 12b4 C901      		movw r24,r18
 3154 12b6 0196      		adiw r24,1
 3155 12b8 FC01      		movw r30,r24
 3156 12ba 43E0      		ldi r20,3
 3157 12bc EE0F      	1:	lsl r30
 3158 12be FF1F      		rol r31
 3159 12c0 4A95      		dec r20
 3160 12c2 01F4      		brne 1b
 3161 12c4 880F      		lsl r24
 3162 12c6 991F      		rol r25
 3163 12c8 E80F      		add r30,r24
 3164 12ca F91F      		adc r31,r25
 3165 12cc E60F      		add r30,r22
 3166 12ce F71F      		adc r31,r23
 3167 12d0 EE0F      		lsl r30
 3168 12d2 FF1F      		rol r31
 3169 12d4 E050      		subi r30,lo8(-(test))
 3170 12d6 F040      		sbci r31,hi8(-(test))
 3171 12d8 0190      		ld __tmp_reg__,Z+
 3172 12da F081      		ld r31,Z
 3173 12dc E02D      		mov r30,__tmp_reg__
 3174 12de 4D91      		ld r20,X+
 3175 12e0 5C91      		ld r21,X
 3176               	.LVL86:
 3177 12e2 E417      		cp r30,r20
 3178 12e4 F507      		cpc r31,r21
 3179 12e6 04F4      		brge .L214
 3180 12e8 AF01      		movw r20,r30
 3181               	.L214:
 3182 12ea DB01      		movw r26,r22
 3183 12ec AA0F      		lsl r26
 3184 12ee BB1F      		rol r27
 3185 12f0 A60F      		add r26,r22
 3186 12f2 B71F      		adc r27,r23
 3187 12f4 AA0F      		lsl r26
 3188 12f6 BB1F      		rol r27
 3189 12f8 8CE3      		ldi r24,lo8(60)
 3190 12fa 90E0      		ldi r25,hi8(60)
 3191 12fc FC01      		movw r30,r24
 3192 12fe 2E9F      		mul r18,r30
 3193 1300 C001      		movw r24,r0
 3194 1302 2F9F      		mul r18,r31
 3195 1304 900D      		add r25,r0
 3196 1306 3E9F      		mul r19,r30
 3197 1308 900D      		add r25,r0
 3198 130a 1124      		clr r1
 3199 130c A80F      		add r26,r24
 3200 130e B91F      		adc r27,r25
 3201 1310 A050      		subi r26,lo8(-(bridge))
 3202 1312 B040      		sbci r27,hi8(-(bridge))
 3203 1314 8C91      		ld r24,X
 3204 1316 1196      		adiw r26,1
 3205 1318 9C91      		ld r25,X
 3206 131a 1197      		sbiw r26,1
 3207 131c FC01      		movw r30,r24
 3208 131e EE0F      		lsl r30
 3209 1320 FF1F      		rol r31
 3210 1322 EE0F      		lsl r30
 3211 1324 FF1F      		rol r31
 3212 1326 EE0F      		lsl r30
 3213 1328 FF1F      		rol r31
 3214 132a 880F      		lsl r24
 3215 132c 991F      		rol r25
 3216 132e E80F      		add r30,r24
 3217 1330 F91F      		adc r31,r25
 3218 1332 1296      		adiw r26,2
 3219 1334 8D91      		ld r24,X+
 3220 1336 9C91      		ld r25,X
 3221 1338 1397      		sbiw r26,2+1
 3222 133a E80F      		add r30,r24
 3223 133c F91F      		adc r31,r25
 3224 133e EE0F      		lsl r30
 3225 1340 FF1F      		rol r31
 3226 1342 E050      		subi r30,lo8(-(test))
 3227 1344 F040      		sbci r31,hi8(-(test))
 3228 1346 0190      		ld __tmp_reg__,Z+
 3229 1348 F081      		ld r31,Z
 3230 134a E02D      		mov r30,__tmp_reg__
 3231 134c DA01      		movw r26,r20
 3232 134e E417      		cp r30,r20
 3233 1350 F507      		cpc r31,r21
 3234 1352 04F4      		brge .L215
 3235 1354 DF01      		movw r26,r30
 3236               	.LVL87:
 3237               	.L215:
 3238 1356 F901      		movw r30,r18
 3239 1358 EE0F      		lsl r30
 3240 135a FF1F      		rol r31
 3241 135c C901      		movw r24,r18
 3242 135e 43E0      		ldi r20,3
 3243 1360 880F      	1:	lsl r24
 3244 1362 991F      		rol r25
 3245 1364 4A95      		dec r20
 3246 1366 01F4      		brne 1b
 3247 1368 E80F      		add r30,r24
 3248 136a F91F      		adc r31,r25
 3249 136c E60F      		add r30,r22
 3250 136e F71F      		adc r31,r23
 3251 1370 EE0F      		lsl r30
 3252 1372 FF1F      		rol r31
 3253 1374 E050      		subi r30,lo8(-(test-2))
 3254 1376 F040      		sbci r31,hi8(-(test-2))
 3255 1378 0190      		ld __tmp_reg__,Z+
 3256 137a F081      		ld r31,Z
 3257 137c E02D      		mov r30,__tmp_reg__
 3258 137e EA17      		cp r30,r26
 3259 1380 FB07      		cpc r31,r27
 3260 1382 04F4      		brge .L216
 3261 1384 DF01      		movw r26,r30
 3262               	.LVL88:
 3263               	.L216:
 3264 1386 F901      		movw r30,r18
 3265 1388 EE0F      		lsl r30
 3266 138a FF1F      		rol r31
 3267 138c C901      		movw r24,r18
 3268 138e 43E0      		ldi r20,3
 3269 1390 880F      	1:	lsl r24
 3270 1392 991F      		rol r25
 3271 1394 4A95      		dec r20
 3272 1396 01F4      		brne 1b
 3273 1398 E80F      		add r30,r24
 3274 139a F91F      		adc r31,r25
 3275 139c E60F      		add r30,r22
 3276 139e F71F      		adc r31,r23
 3277 13a0 EE0F      		lsl r30
 3278 13a2 FF1F      		rol r31
 3279 13a4 E050      		subi r30,lo8(-(test+2))
 3280 13a6 F040      		sbci r31,hi8(-(test+2))
 3281 13a8 0190      		ld __tmp_reg__,Z+
 3282 13aa F081      		ld r31,Z
 3283 13ac E02D      		mov r30,__tmp_reg__
 3284 13ae CD01      		movw r24,r26
 3285 13b0 EA17      		cp r30,r26
 3286 13b2 FB07      		cpc r31,r27
 3287 13b4 04F4      		brge .L217
 3288 13b6 CF01      		movw r24,r30
 3289               	.LVL89:
 3290               	.L217:
 3291 13b8 F901      		movw r30,r18
 3292 13ba EE0F      		lsl r30
 3293 13bc FF1F      		rol r31
 3294 13be 43E0      		ldi r20,3
 3295 13c0 220F      	1:	lsl r18
 3296 13c2 331F      		rol r19
 3297 13c4 4A95      		dec r20
 3298 13c6 01F4      		brne 1b
 3299               	.LVL90:
 3300               	.LBB319:
 3301               	.LM390:
 3302 13c8 8436      		cpi r24,100
 3303 13ca 9105      		cpc r25,__zero_reg__
 3304 13cc 01F4      		brne .L218
 3305               	.LM391:
 3306 13ce E20F      		add r30,r18
 3307 13d0 F31F      		adc r31,r19
 3308 13d2 E60F      		add r30,r22
 3309 13d4 F71F      		adc r31,r23
 3310 13d6 EE0F      		lsl r30
 3311 13d8 FF1F      		rol r31
 3312 13da E050      		subi r30,lo8(-(test))
 3313 13dc F040      		sbci r31,hi8(-(test))
 3314 13de 00C0      		rjmp .L221
 3315               	.L218:
 3316               	.LM392:
 3317 13e0 DC01      		movw r26,r24
 3318 13e2 1196      		adiw r26,1
 3319 13e4 E20F      		add r30,r18
 3320 13e6 F31F      		adc r31,r19
 3321 13e8 E60F      		add r30,r22
 3322 13ea F71F      		adc r31,r23
 3323 13ec EE0F      		lsl r30
 3324 13ee FF1F      		rol r31
 3325 13f0 E050      		subi r30,lo8(-(test))
 3326 13f2 F040      		sbci r31,hi8(-(test))
 3327 13f4 B183      		std Z+1,r27
 3328 13f6 A083      		st Z,r26
 3329               	.LVL91:
 3330               	.L211:
 3331               	.LBE319:
 3332               	.LM393:
 3333 13f8 CD01      		movw r24,r26
 3334               	.LVL92:
 3335               	/* epilogue start */
 3336 13fa 0895      		ret
 3337               	.LFE33:
 3339               	.global	findpath
 3341               	findpath:
 3342               	.LFB34:
 3343               	.LM394:
 3344 13fc 2F92      		push r2
 3345 13fe 3F92      		push r3
 3346 1400 4F92      		push r4
 3347 1402 5F92      		push r5
 3348 1404 6F92      		push r6
 3349 1406 7F92      		push r7
 3350 1408 8F92      		push r8
 3351 140a 9F92      		push r9
 3352 140c AF92      		push r10
 3353 140e BF92      		push r11
 3354 1410 CF92      		push r12
 3355 1412 DF92      		push r13
 3356 1414 EF92      		push r14
 3357 1416 FF92      		push r15
 3358 1418 0F93      		push r16
 3359 141a 1F93      		push r17
 3360 141c CF93      		push r28
 3361 141e DF93      		push r29
 3362               	/* prologue: function */
 3363               	/* frame size = 0 */
 3364               	.LM395:
 3365 1420 6091 0000 		lds r22,x
 3366 1424 7091 0000 		lds r23,(x)+1
 3367 1428 4091 0000 		lds r20,y
 3368 142c 5091 0000 		lds r21,(y)+1
 3369 1430 DB01      		movw r26,r22
 3370 1432 AA0F      		lsl r26
 3371 1434 BB1F      		rol r27
 3372 1436 CB01      		movw r24,r22
 3373 1438 33E0      		ldi r19,3
 3374 143a 880F      	1:	lsl r24
 3375 143c 991F      		rol r25
 3376 143e 3A95      		dec r19
 3377 1440 01F4      		brne 1b
 3378 1442 A80F      		add r26,r24
 3379 1444 B91F      		adc r27,r25
 3380 1446 FD01      		movw r30,r26
 3381 1448 E40F      		add r30,r20
 3382 144a F51F      		adc r31,r21
 3383 144c EE0F      		lsl r30
 3384 144e FF1F      		rol r31
 3385 1450 E050      		subi r30,lo8(-(test-2))
 3386 1452 F040      		sbci r31,hi8(-(test-2))
 3387 1454 4080      		ld r4,Z
 3388 1456 5180      		ldd r5,Z+1
 3389               	.LVL93:
 3390               	.LM396:
 3391 1458 4A01      		movw r8,r20
 3392 145a 0894      		sec
 3393 145c 811C      		adc r8,__zero_reg__
 3394 145e 911C      		adc r9,__zero_reg__
 3395 1460 A80D      		add r26,r8
 3396 1462 B91D      		adc r27,r9
 3397 1464 AA0F      		lsl r26
 3398 1466 BB1F      		rol r27
 3399 1468 A050      		subi r26,lo8(-(test))
 3400 146a B040      		sbci r27,hi8(-(test))
 3401 146c ED90      		ld r14,X+
 3402 146e FC90      		ld r15,X
 3403               	.LVL94:
 3404               	.LM397:
 3405 1470 5B01      		movw r10,r22
 3406 1472 0894      		sec
 3407 1474 A108      		sbc r10,__zero_reg__
 3408 1476 B108      		sbc r11,__zero_reg__
 3409 1478 F501      		movw r30,r10
 3410 147a EE0F      		lsl r30
 3411 147c FF1F      		rol r31
 3412 147e C501      		movw r24,r10
 3413 1480 03E0      		ldi r16,3
 3414 1482 880F      	1:	lsl r24
 3415 1484 991F      		rol r25
 3416 1486 0A95      		dec r16
 3417 1488 01F4      		brne 1b
 3418 148a E80F      		add r30,r24
 3419 148c F91F      		adc r31,r25
 3420 148e E40F      		add r30,r20
 3421 1490 F51F      		adc r31,r21
 3422 1492 EE0F      		lsl r30
 3423 1494 FF1F      		rol r31
 3424 1496 E050      		subi r30,lo8(-(test))
 3425 1498 F040      		sbci r31,hi8(-(test))
 3426 149a 0081      		ld r16,Z
 3427 149c 1181      		ldd r17,Z+1
 3428               	.LVL95:
 3429               	.LM398:
 3430 149e 6B01      		movw r12,r22
 3431 14a0 0894      		sec
 3432 14a2 C11C      		adc r12,__zero_reg__
 3433 14a4 D11C      		adc r13,__zero_reg__
 3434 14a6 F601      		movw r30,r12
 3435 14a8 EE0F      		lsl r30
 3436 14aa FF1F      		rol r31
 3437 14ac C601      		movw r24,r12
 3438 14ae A3E0      		ldi r26,3
 3439 14b0 880F      	1:	lsl r24
 3440 14b2 991F      		rol r25
 3441 14b4 AA95      		dec r26
 3442 14b6 01F4      		brne 1b
 3443 14b8 E80F      		add r30,r24
 3444 14ba F91F      		adc r31,r25
 3445 14bc E40F      		add r30,r20
 3446 14be F51F      		adc r31,r21
 3447 14c0 EE0F      		lsl r30
 3448 14c2 FF1F      		rol r31
 3449 14c4 E050      		subi r30,lo8(-(test))
 3450 14c6 F040      		sbci r31,hi8(-(test))
 3451 14c8 C081      		ld r28,Z
 3452 14ca D181      		ldd r29,Z+1
 3453               	.LVL96:
 3454               	.LM399:
 3455 14cc FA01      		movw r30,r20
 3456 14ce EE0F      		lsl r30
 3457 14d0 FF1F      		rol r31
 3458 14d2 E40F      		add r30,r20
 3459 14d4 F51F      		adc r31,r21
 3460 14d6 EE0F      		lsl r30
 3461 14d8 FF1F      		rol r31
 3462 14da 8CE3      		ldi r24,lo8(60)
 3463 14dc 90E0      		ldi r25,hi8(60)
 3464 14de 9C01      		movw r18,r24
 3465 14e0 629F      		mul r22,r18
 3466 14e2 C001      		movw r24,r0
 3467 14e4 639F      		mul r22,r19
 3468 14e6 900D      		add r25,r0
 3469 14e8 729F      		mul r23,r18
 3470 14ea 900D      		add r25,r0
 3471 14ec 1124      		clr r1
 3472 14ee E80F      		add r30,r24
 3473 14f0 F91F      		adc r31,r25
 3474 14f2 E050      		subi r30,lo8(-(bridge))
 3475 14f4 F040      		sbci r31,hi8(-(bridge))
 3476 14f6 A081      		ld r26,Z
 3477 14f8 B181      		ldd r27,Z+1
 3478 14fa 6280      		ldd r6,Z+2
 3479 14fc 7380      		ldd r7,Z+3
 3480 14fe FD01      		movw r30,r26
 3481 1500 EE0F      		lsl r30
 3482 1502 FF1F      		rol r31
 3483 1504 CD01      		movw r24,r26
 3484 1506 33E0      		ldi r19,3
 3485 1508 880F      	1:	lsl r24
 3486 150a 991F      		rol r25
 3487 150c 3A95      		dec r19
 3488 150e 01F4      		brne 1b
 3489 1510 E80F      		add r30,r24
 3490 1512 F91F      		adc r31,r25
 3491 1514 E60D      		add r30,r6
 3492 1516 F71D      		adc r31,r7
 3493 1518 EE0F      		lsl r30
 3494 151a FF1F      		rol r31
 3495 151c E050      		subi r30,lo8(-(test))
 3496 151e F040      		sbci r31,hi8(-(test))
 3497 1520 2080      		ld r2,Z
 3498 1522 3180      		ldd r3,Z+1
 3499               	.LVL97:
 3500               	.LM400:
 3501 1524 2091 0000 		lds r18,ori_m
 3502 1528 3091 0000 		lds r19,(ori_m)+1
 3503 152c 2130      		cpi r18,1
 3504 152e 3105      		cpc r19,__zero_reg__
 3505 1530 01F4      		brne .L223
 3506               	.LM401:
 3507 1532 E091 0000 		lds r30,pointer
 3508 1536 F091 0000 		lds r31,(pointer)+1
 3509 153a E050      		subi r30,lo8(-(path))
 3510 153c F040      		sbci r31,hi8(-(path))
 3511 153e 82E5      		ldi r24,lo8(82)
 3512 1540 00C0      		rjmp .L295
 3513               	.L223:
 3514               	.LM402:
 3515 1542 2230      		cpi r18,2
 3516 1544 3105      		cpc r19,__zero_reg__
 3517 1546 01F4      		brne .L225
 3518               	.LM403:
 3519 1548 E091 0000 		lds r30,pointer
 3520 154c F091 0000 		lds r31,(pointer)+1
 3521 1550 E050      		subi r30,lo8(-(path))
 3522 1552 F040      		sbci r31,hi8(-(path))
 3523 1554 83E5      		ldi r24,lo8(83)
 3524 1556 00C0      		rjmp .L295
 3525               	.L225:
 3526               	.LM404:
 3527 1558 2330      		cpi r18,3
 3528 155a 3105      		cpc r19,__zero_reg__
 3529 155c 01F4      		brne .L226
 3530               	.LM405:
 3531 155e E091 0000 		lds r30,pointer
 3532 1562 F091 0000 		lds r31,(pointer)+1
 3533 1566 E050      		subi r30,lo8(-(path))
 3534 1568 F040      		sbci r31,hi8(-(path))
 3535 156a 8CE4      		ldi r24,lo8(76)
 3536 156c 00C0      		rjmp .L295
 3537               	.L226:
 3538               	.LM406:
 3539 156e 2430      		cpi r18,4
 3540 1570 3105      		cpc r19,__zero_reg__
 3541 1572 01F4      		brne .L224
 3542               	.LM407:
 3543 1574 E091 0000 		lds r30,pointer
 3544 1578 F091 0000 		lds r31,(pointer)+1
 3545 157c E050      		subi r30,lo8(-(path))
 3546 157e F040      		sbci r31,hi8(-(path))
 3547 1580 85E5      		ldi r24,lo8(85)
 3548               	.L295:
 3549 1582 8083      		st Z,r24
 3550               	.L224:
 3551               	.LM408:
 3552 1584 E414      		cp r14,r4
 3553 1586 F504      		cpc r15,r5
 3554 1588 04F0      		brlt .L227
 3555 158a C201      		movw r24,r4
 3556               	.LVL98:
 3557 158c 00C0      		rjmp .L228
 3558               	.LVL99:
 3559               	.L227:
 3560               	.LM409:
 3561 158e 2130      		cpi r18,1
 3562 1590 3105      		cpc r19,__zero_reg__
 3563 1592 01F4      		brne .L229
 3564               	.LM410:
 3565 1594 E091 0000 		lds r30,pointer
 3566 1598 F091 0000 		lds r31,(pointer)+1
 3567 159c E050      		subi r30,lo8(-(path))
 3568 159e F040      		sbci r31,hi8(-(path))
 3569 15a0 8CE4      		ldi r24,lo8(76)
 3570 15a2 00C0      		rjmp .L296
 3571               	.L229:
 3572               	.LM411:
 3573 15a4 2230      		cpi r18,2
 3574 15a6 3105      		cpc r19,__zero_reg__
 3575 15a8 01F4      		brne .L230
 3576               	.LM412:
 3577 15aa E091 0000 		lds r30,pointer
 3578 15ae F091 0000 		lds r31,(pointer)+1
 3579 15b2 E050      		subi r30,lo8(-(path))
 3580 15b4 F040      		sbci r31,hi8(-(path))
 3581 15b6 85E5      		ldi r24,lo8(85)
 3582 15b8 00C0      		rjmp .L296
 3583               	.L230:
 3584               	.LM413:
 3585 15ba 2330      		cpi r18,3
 3586 15bc 3105      		cpc r19,__zero_reg__
 3587 15be 01F4      		brne .L231
 3588               	.LM414:
 3589 15c0 E091 0000 		lds r30,pointer
 3590 15c4 F091 0000 		lds r31,(pointer)+1
 3591 15c8 E050      		subi r30,lo8(-(path))
 3592 15ca F040      		sbci r31,hi8(-(path))
 3593 15cc 82E5      		ldi r24,lo8(82)
 3594 15ce 00C0      		rjmp .L296
 3595               	.L231:
 3596               	.LM415:
 3597 15d0 2430      		cpi r18,4
 3598 15d2 3105      		cpc r19,__zero_reg__
 3599 15d4 01F4      		brne .L297
 3600               	.L232:
 3601               	.LM416:
 3602 15d6 E091 0000 		lds r30,pointer
 3603 15da F091 0000 		lds r31,(pointer)+1
 3604 15de E050      		subi r30,lo8(-(path))
 3605 15e0 F040      		sbci r31,hi8(-(path))
 3606 15e2 83E5      		ldi r24,lo8(83)
 3607               	.L296:
 3608 15e4 8083      		st Z,r24
 3609               	.L297:
 3610 15e6 C701      		movw r24,r14
 3611               	.LVL100:
 3612               	.L228:
 3613               	.LM417:
 3614 15e8 0817      		cp r16,r24
 3615 15ea 1907      		cpc r17,r25
 3616 15ec 04F4      		brge .L233
 3617               	.LM418:
 3618 15ee 2130      		cpi r18,1
 3619 15f0 3105      		cpc r19,__zero_reg__
 3620 15f2 01F4      		brne .L234
 3621               	.LM419:
 3622 15f4 E091 0000 		lds r30,pointer
 3623 15f8 F091 0000 		lds r31,(pointer)+1
 3624 15fc E050      		subi r30,lo8(-(path))
 3625 15fe F040      		sbci r31,hi8(-(path))
 3626 1600 85E5      		ldi r24,lo8(85)
 3627               	.LVL101:
 3628 1602 00C0      		rjmp .L298
 3629               	.LVL102:
 3630               	.L234:
 3631               	.LM420:
 3632 1604 2230      		cpi r18,2
 3633 1606 3105      		cpc r19,__zero_reg__
 3634 1608 01F4      		brne .L235
 3635               	.LM421:
 3636 160a E091 0000 		lds r30,pointer
 3637 160e F091 0000 		lds r31,(pointer)+1
 3638 1612 E050      		subi r30,lo8(-(path))
 3639 1614 F040      		sbci r31,hi8(-(path))
 3640 1616 82E5      		ldi r24,lo8(82)
 3641               	.LVL103:
 3642 1618 00C0      		rjmp .L298
 3643               	.LVL104:
 3644               	.L235:
 3645               	.LM422:
 3646 161a 2330      		cpi r18,3
 3647 161c 3105      		cpc r19,__zero_reg__
 3648 161e 01F4      		brne .L236
 3649               	.LM423:
 3650 1620 E091 0000 		lds r30,pointer
 3651 1624 F091 0000 		lds r31,(pointer)+1
 3652 1628 E050      		subi r30,lo8(-(path))
 3653 162a F040      		sbci r31,hi8(-(path))
 3654 162c 83E5      		ldi r24,lo8(83)
 3655               	.LVL105:
 3656 162e 00C0      		rjmp .L298
 3657               	.LVL106:
 3658               	.L236:
 3659               	.LM424:
 3660 1630 2430      		cpi r18,4
 3661 1632 3105      		cpc r19,__zero_reg__
 3662 1634 01F4      		brne .L299
 3663               	.L237:
 3664               	.LM425:
 3665 1636 E091 0000 		lds r30,pointer
 3666 163a F091 0000 		lds r31,(pointer)+1
 3667 163e E050      		subi r30,lo8(-(path))
 3668 1640 F040      		sbci r31,hi8(-(path))
 3669 1642 8CE4      		ldi r24,lo8(76)
 3670               	.LVL107:
 3671               	.L298:
 3672 1644 8083      		st Z,r24
 3673               	.LVL108:
 3674               	.L299:
 3675 1646 C801      		movw r24,r16
 3676               	.L233:
 3677               	.LM426:
 3678 1648 C817      		cp r28,r24
 3679 164a D907      		cpc r29,r25
 3680 164c 04F4      		brge .L238
 3681               	.LM427:
 3682 164e 2130      		cpi r18,1
 3683 1650 3105      		cpc r19,__zero_reg__
 3684 1652 01F4      		brne .L239
 3685               	.LM428:
 3686 1654 E091 0000 		lds r30,pointer
 3687 1658 F091 0000 		lds r31,(pointer)+1
 3688 165c E050      		subi r30,lo8(-(path))
 3689 165e F040      		sbci r31,hi8(-(path))
 3690 1660 83E5      		ldi r24,lo8(83)
 3691               	.LVL109:
 3692 1662 00C0      		rjmp .L300
 3693               	.LVL110:
 3694               	.L239:
 3695               	.LM429:
 3696 1664 2230      		cpi r18,2
 3697 1666 3105      		cpc r19,__zero_reg__
 3698 1668 01F4      		brne .L240
 3699               	.LM430:
 3700 166a E091 0000 		lds r30,pointer
 3701 166e F091 0000 		lds r31,(pointer)+1
 3702 1672 E050      		subi r30,lo8(-(path))
 3703 1674 F040      		sbci r31,hi8(-(path))
 3704 1676 8CE4      		ldi r24,lo8(76)
 3705               	.LVL111:
 3706 1678 00C0      		rjmp .L300
 3707               	.LVL112:
 3708               	.L240:
 3709               	.LM431:
 3710 167a 2330      		cpi r18,3
 3711 167c 3105      		cpc r19,__zero_reg__
 3712 167e 01F4      		brne .L241
 3713               	.LM432:
 3714 1680 E091 0000 		lds r30,pointer
 3715 1684 F091 0000 		lds r31,(pointer)+1
 3716 1688 E050      		subi r30,lo8(-(path))
 3717 168a F040      		sbci r31,hi8(-(path))
 3718 168c 85E5      		ldi r24,lo8(85)
 3719               	.LVL113:
 3720 168e 00C0      		rjmp .L300
 3721               	.LVL114:
 3722               	.L241:
 3723               	.LM433:
 3724 1690 2430      		cpi r18,4
 3725 1692 3105      		cpc r19,__zero_reg__
 3726 1694 01F4      		brne .L301
 3727               	.L242:
 3728               	.LM434:
 3729 1696 E091 0000 		lds r30,pointer
 3730 169a F091 0000 		lds r31,(pointer)+1
 3731 169e E050      		subi r30,lo8(-(path))
 3732 16a0 F040      		sbci r31,hi8(-(path))
 3733 16a2 82E5      		ldi r24,lo8(82)
 3734               	.LVL115:
 3735               	.L300:
 3736 16a4 8083      		st Z,r24
 3737               	.LVL116:
 3738               	.L301:
 3739 16a6 CE01      		movw r24,r28
 3740               	.L238:
 3741               	.LM435:
 3742 16a8 2816      		cp r2,r24
 3743 16aa 3906      		cpc r3,r25
 3744 16ac 04F0      		brlt .+2
 3745 16ae 00C0      		rjmp .L243
 3746               	.LM436:
 3747 16b0 CD01      		movw r24,r26
 3748               	.LVL117:
 3749 16b2 861B      		sub r24,r22
 3750 16b4 970B      		sbc r25,r23
 3751               	.LM437:
 3752 16b6 D301      		movw r26,r6
 3753               	.LVL118:
 3754 16b8 A41B      		sub r26,r20
 3755 16ba B50B      		sbc r27,r21
 3756               	.LM438:
 3757 16bc 8130      		cpi r24,1
 3758 16be 9105      		cpc r25,__zero_reg__
 3759 16c0 01F0      		breq .+2
 3760 16c2 00C0      		rjmp .L244
 3761 16c4 A130      		cpi r26,1
 3762 16c6 B105      		cpc r27,__zero_reg__
 3763 16c8 01F0      		breq .+2
 3764 16ca 00C0      		rjmp .L245
 3765               	.LM439:
 3766 16cc FA01      		movw r30,r20
 3767 16ce EE0F      		lsl r30
 3768 16d0 FF1F      		rol r31
 3769 16d2 E40F      		add r30,r20
 3770 16d4 F51F      		adc r31,r21
 3771 16d6 EE0F      		lsl r30
 3772 16d8 FF1F      		rol r31
 3773               	.LVL119:
 3774 16da 8CE3      		ldi r24,lo8(60)
 3775 16dc 90E0      		ldi r25,hi8(60)
 3776 16de AC01      		movw r20,r24
 3777 16e0 649F      		mul r22,r20
 3778 16e2 C001      		movw r24,r0
 3779 16e4 659F      		mul r22,r21
 3780 16e6 900D      		add r25,r0
 3781 16e8 749F      		mul r23,r20
 3782 16ea 900D      		add r25,r0
 3783 16ec 1124      		clr r1
 3784 16ee E80F      		add r30,r24
 3785 16f0 F91F      		adc r31,r25
 3786 16f2 E050      		subi r30,lo8(-(bridge))
 3787 16f4 F040      		sbci r31,hi8(-(bridge))
 3788 16f6 4481      		ldd r20,Z+4
 3789 16f8 5581      		ldd r21,Z+5
 3790 16fa 4130      		cpi r20,1
 3791 16fc 5105      		cpc r21,__zero_reg__
 3792 16fe 01F4      		brne .L246
 3793               	.LM440:
 3794 1700 2130      		cpi r18,1
 3795 1702 3105      		cpc r19,__zero_reg__
 3796 1704 01F4      		brne .L247
 3797               	.LM441:
 3798 1706 E091 0000 		lds r30,pointer
 3799 170a F091 0000 		lds r31,(pointer)+1
 3800 170e E050      		subi r30,lo8(-(path))
 3801 1710 F040      		sbci r31,hi8(-(path))
 3802 1712 8CE4      		ldi r24,lo8(76)
 3803 1714 00C0      		rjmp .L302
 3804               	.L247:
 3805               	.LM442:
 3806 1716 2230      		cpi r18,2
 3807 1718 3105      		cpc r19,__zero_reg__
 3808 171a 01F4      		brne .L249
 3809               	.LM443:
 3810 171c E091 0000 		lds r30,pointer
 3811 1720 F091 0000 		lds r31,(pointer)+1
 3812 1724 E050      		subi r30,lo8(-(path))
 3813 1726 F040      		sbci r31,hi8(-(path))
 3814 1728 85E5      		ldi r24,lo8(85)
 3815 172a 00C0      		rjmp .L302
 3816               	.L249:
 3817               	.LM444:
 3818 172c 2330      		cpi r18,3
 3819 172e 3105      		cpc r19,__zero_reg__
 3820 1730 01F4      		brne .L250
 3821               	.LM445:
 3822 1732 E091 0000 		lds r30,pointer
 3823 1736 F091 0000 		lds r31,(pointer)+1
 3824 173a E050      		subi r30,lo8(-(path))
 3825 173c F040      		sbci r31,hi8(-(path))
 3826 173e 82E5      		ldi r24,lo8(82)
 3827 1740 8083      		st Z,r24
 3828 1742 00C0      		rjmp .L303
 3829               	.L250:
 3830               	.LM446:
 3831 1744 2430      		cpi r18,4
 3832 1746 3105      		cpc r19,__zero_reg__
 3833 1748 01F4      		brne .L248
 3834               	.LM447:
 3835 174a E091 0000 		lds r30,pointer
 3836 174e F091 0000 		lds r31,(pointer)+1
 3837 1752 E050      		subi r30,lo8(-(path))
 3838 1754 F040      		sbci r31,hi8(-(path))
 3839 1756 83E5      		ldi r24,lo8(83)
 3840               	.L302:
 3841 1758 8083      		st Z,r24
 3842               	.LM448:
 3843 175a 82E5      		ldi r24,lo8(82)
 3844               	.L303:
 3845 175c 8183      		std Z+1,r24
 3846               	.LM449:
 3847 175e 8283      		std Z+2,r24
 3848               	.L248:
 3849               	.LM450:
 3850 1760 81E0      		ldi r24,lo8(1)
 3851 1762 90E0      		ldi r25,hi8(1)
 3852 1764 9093 0000 		sts (ori_m)+1,r25
 3853 1768 8093 0000 		sts ori_m,r24
 3854               	.L246:
 3855               	.LM451:
 3856 176c 4230      		cpi r20,2
 3857 176e 5105      		cpc r21,__zero_reg__
 3858 1770 01F4      		brne .L251
 3859               	.LM452:
 3860 1772 8091 0000 		lds r24,ori_m
 3861 1776 9091 0000 		lds r25,(ori_m)+1
 3862 177a 8130      		cpi r24,1
 3863 177c 9105      		cpc r25,__zero_reg__
 3864 177e 01F4      		brne .L252
 3865               	.LM453:
 3866 1780 E091 0000 		lds r30,pointer
 3867 1784 F091 0000 		lds r31,(pointer)+1
 3868 1788 E050      		subi r30,lo8(-(path))
 3869 178a F040      		sbci r31,hi8(-(path))
 3870 178c 83E5      		ldi r24,lo8(83)
 3871 178e 00C0      		rjmp .L316
 3872               	.L252:
 3873               	.LM454:
 3874 1790 8230      		cpi r24,2
 3875 1792 9105      		cpc r25,__zero_reg__
 3876 1794 01F4      		brne .L254
 3877               	.LM455:
 3878 1796 E091 0000 		lds r30,pointer
 3879 179a F091 0000 		lds r31,(pointer)+1
 3880 179e E050      		subi r30,lo8(-(path))
 3881 17a0 F040      		sbci r31,hi8(-(path))
 3882 17a2 8CE4      		ldi r24,lo8(76)
 3883 17a4 8083      		st Z,r24
 3884 17a6 00C0      		rjmp .L304
 3885               	.L254:
 3886               	.LM456:
 3887 17a8 8330      		cpi r24,3
 3888 17aa 9105      		cpc r25,__zero_reg__
 3889 17ac 01F4      		brne .L255
 3890               	.LM457:
 3891 17ae E091 0000 		lds r30,pointer
 3892 17b2 F091 0000 		lds r31,(pointer)+1
 3893 17b6 E050      		subi r30,lo8(-(path))
 3894 17b8 F040      		sbci r31,hi8(-(path))
 3895 17ba 85E5      		ldi r24,lo8(85)
 3896 17bc 00C0      		rjmp .L316
 3897               	.L255:
 3898               	.LM458:
 3899 17be 0497      		sbiw r24,4
 3900 17c0 01F4      		brne .L253
 3901               	.LM459:
 3902 17c2 E091 0000 		lds r30,pointer
 3903 17c6 F091 0000 		lds r31,(pointer)+1
 3904 17ca E050      		subi r30,lo8(-(path))
 3905 17cc F040      		sbci r31,hi8(-(path))
 3906 17ce 82E5      		ldi r24,lo8(82)
 3907               	.L316:
 3908 17d0 8083      		st Z,r24
 3909               	.LM460:
 3910 17d2 8CE4      		ldi r24,lo8(76)
 3911               	.L304:
 3912 17d4 8183      		std Z+1,r24
 3913               	.LM461:
 3914 17d6 8283      		std Z+2,r24
 3915               	.L253:
 3916               	.LM462:
 3917 17d8 84E0      		ldi r24,lo8(4)
 3918 17da 90E0      		ldi r25,hi8(4)
 3919 17dc 9093 0000 		sts (ori_m)+1,r25
 3920 17e0 8093 0000 		sts ori_m,r24
 3921               	.L251:
 3922               	.LM463:
 3923 17e4 D092 0000 		sts (x)+1,r13
 3924 17e8 C092 0000 		sts x,r12
 3925               	.LM464:
 3926 17ec 9092 0000 		sts (y)+1,r9
 3927 17f0 8092 0000 		sts y,r8
 3928 17f4 00C0      		rjmp .L245
 3929               	.LVL120:
 3930               	.L320:
 3931               	.LM465:
 3932 17f6 4091 0000 		lds r20,x
 3933 17fa 5091 0000 		lds r21,(x)+1
 3934 17fe 2091 0000 		lds r18,y
 3935 1802 3091 0000 		lds r19,(y)+1
 3936 1806 F901      		movw r30,r18
 3937 1808 EE0F      		lsl r30
 3938 180a FF1F      		rol r31
 3939 180c E20F      		add r30,r18
 3940 180e F31F      		adc r31,r19
 3941 1810 EE0F      		lsl r30
 3942 1812 FF1F      		rol r31
 3943 1814 8CE3      		ldi r24,lo8(60)
 3944 1816 90E0      		ldi r25,hi8(60)
 3945               	.LVL121:
 3946 1818 BC01      		movw r22,r24
 3947 181a 469F      		mul r20,r22
 3948 181c C001      		movw r24,r0
 3949 181e 479F      		mul r20,r23
 3950 1820 900D      		add r25,r0
 3951 1822 569F      		mul r21,r22
 3952 1824 900D      		add r25,r0
 3953 1826 1124      		clr r1
 3954 1828 E80F      		add r30,r24
 3955 182a F91F      		adc r31,r25
 3956 182c E050      		subi r30,lo8(-(bridge))
 3957 182e F040      		sbci r31,hi8(-(bridge))
 3958 1830 6481      		ldd r22,Z+4
 3959 1832 7581      		ldd r23,Z+5
 3960 1834 6130      		cpi r22,1
 3961 1836 7105      		cpc r23,__zero_reg__
 3962 1838 01F4      		brne .L256
 3963               	.LM466:
 3964 183a 8091 0000 		lds r24,ori_m
 3965 183e 9091 0000 		lds r25,(ori_m)+1
 3966 1842 8130      		cpi r24,1
 3967 1844 9105      		cpc r25,__zero_reg__
 3968 1846 01F4      		brne .L257
 3969               	.LM467:
 3970 1848 E091 0000 		lds r30,pointer
 3971 184c F091 0000 		lds r31,(pointer)+1
 3972 1850 E050      		subi r30,lo8(-(path))
 3973 1852 F040      		sbci r31,hi8(-(path))
 3974 1854 82E5      		ldi r24,lo8(82)
 3975 1856 00C0      		rjmp .L305
 3976               	.L257:
 3977               	.LM468:
 3978 1858 8230      		cpi r24,2
 3979 185a 9105      		cpc r25,__zero_reg__
 3980 185c 01F4      		brne .L259
 3981               	.LM469:
 3982 185e E091 0000 		lds r30,pointer
 3983 1862 F091 0000 		lds r31,(pointer)+1
 3984 1866 E050      		subi r30,lo8(-(path))
 3985 1868 F040      		sbci r31,hi8(-(path))
 3986 186a 83E5      		ldi r24,lo8(83)
 3987 186c 00C0      		rjmp .L305
 3988               	.L259:
 3989               	.LM470:
 3990 186e 8330      		cpi r24,3
 3991 1870 9105      		cpc r25,__zero_reg__
 3992 1872 01F4      		brne .L260
 3993               	.LM471:
 3994 1874 E091 0000 		lds r30,pointer
 3995 1878 F091 0000 		lds r31,(pointer)+1
 3996 187c E050      		subi r30,lo8(-(path))
 3997 187e F040      		sbci r31,hi8(-(path))
 3998 1880 8CE4      		ldi r24,lo8(76)
 3999 1882 8083      		st Z,r24
 4000 1884 00C0      		rjmp .L306
 4001               	.L260:
 4002               	.LM472:
 4003 1886 0497      		sbiw r24,4
 4004 1888 01F4      		brne .L258
 4005               	.LM473:
 4006 188a E091 0000 		lds r30,pointer
 4007 188e F091 0000 		lds r31,(pointer)+1
 4008 1892 E050      		subi r30,lo8(-(path))
 4009 1894 F040      		sbci r31,hi8(-(path))
 4010 1896 85E5      		ldi r24,lo8(85)
 4011               	.L305:
 4012 1898 8083      		st Z,r24
 4013               	.LM474:
 4014 189a 8CE4      		ldi r24,lo8(76)
 4015               	.L306:
 4016 189c 8183      		std Z+1,r24
 4017               	.LM475:
 4018 189e 8283      		std Z+2,r24
 4019               	.L258:
 4020               	.LM476:
 4021 18a0 81E0      		ldi r24,lo8(1)
 4022 18a2 90E0      		ldi r25,hi8(1)
 4023 18a4 9093 0000 		sts (ori_m)+1,r25
 4024 18a8 8093 0000 		sts ori_m,r24
 4025               	.L256:
 4026               	.LM477:
 4027 18ac 6230      		cpi r22,2
 4028 18ae 7105      		cpc r23,__zero_reg__
 4029 18b0 01F4      		brne .L261
 4030               	.LM478:
 4031 18b2 8091 0000 		lds r24,ori_m
 4032 18b6 9091 0000 		lds r25,(ori_m)+1
 4033 18ba 8130      		cpi r24,1
 4034 18bc 9105      		cpc r25,__zero_reg__
 4035 18be 01F4      		brne .L262
 4036               	.LM479:
 4037 18c0 E091 0000 		lds r30,pointer
 4038 18c4 F091 0000 		lds r31,(pointer)+1
 4039 18c8 E050      		subi r30,lo8(-(path))
 4040 18ca F040      		sbci r31,hi8(-(path))
 4041 18cc 83E5      		ldi r24,lo8(83)
 4042 18ce 00C0      		rjmp .L317
 4043               	.L262:
 4044               	.LM480:
 4045 18d0 8230      		cpi r24,2
 4046 18d2 9105      		cpc r25,__zero_reg__
 4047 18d4 01F4      		brne .L264
 4048               	.LM481:
 4049 18d6 E091 0000 		lds r30,pointer
 4050 18da F091 0000 		lds r31,(pointer)+1
 4051 18de E050      		subi r30,lo8(-(path))
 4052 18e0 F040      		sbci r31,hi8(-(path))
 4053 18e2 8CE4      		ldi r24,lo8(76)
 4054 18e4 00C0      		rjmp .L317
 4055               	.L264:
 4056               	.LM482:
 4057 18e6 8330      		cpi r24,3
 4058 18e8 9105      		cpc r25,__zero_reg__
 4059 18ea 01F4      		brne .L265
 4060               	.LM483:
 4061 18ec E091 0000 		lds r30,pointer
 4062 18f0 F091 0000 		lds r31,(pointer)+1
 4063 18f4 E050      		subi r30,lo8(-(path))
 4064 18f6 F040      		sbci r31,hi8(-(path))
 4065 18f8 85E5      		ldi r24,lo8(85)
 4066               	.L317:
 4067 18fa 8083      		st Z,r24
 4068               	.LM484:
 4069 18fc 82E5      		ldi r24,lo8(82)
 4070 18fe 00C0      		rjmp .L307
 4071               	.L265:
 4072               	.LM485:
 4073 1900 0497      		sbiw r24,4
 4074 1902 01F4      		brne .L263
 4075               	.LM486:
 4076 1904 E091 0000 		lds r30,pointer
 4077 1908 F091 0000 		lds r31,(pointer)+1
 4078 190c E050      		subi r30,lo8(-(path))
 4079 190e F040      		sbci r31,hi8(-(path))
 4080 1910 82E5      		ldi r24,lo8(82)
 4081 1912 8083      		st Z,r24
 4082               	.L307:
 4083               	.LM487:
 4084 1914 8183      		std Z+1,r24
 4085               	.LM488:
 4086 1916 8283      		std Z+2,r24
 4087               	.L263:
 4088               	.LM489:
 4089 1918 82E0      		ldi r24,lo8(2)
 4090 191a 90E0      		ldi r25,hi8(2)
 4091 191c 9093 0000 		sts (ori_m)+1,r25
 4092 1920 8093 0000 		sts ori_m,r24
 4093               	.L261:
 4094               	.LM490:
 4095 1924 4F5F      		subi r20,lo8(-(1))
 4096 1926 5F4F      		sbci r21,hi8(-(1))
 4097 1928 00C0      		rjmp .L313
 4098               	.LVL122:
 4099               	.L244:
 4100               	.LM491:
 4101 192a 8F5F      		subi r24,lo8(-1)
 4102 192c 9F4F      		sbci r25,hi8(-1)
 4103 192e 01F0      		breq .+2
 4104 1930 00C0      		rjmp .L266
 4105 1932 A130      		cpi r26,1
 4106 1934 B105      		cpc r27,__zero_reg__
 4107 1936 01F0      		breq .+2
 4108 1938 00C0      		rjmp .L267
 4109               	.LM492:
 4110 193a FA01      		movw r30,r20
 4111 193c EE0F      		lsl r30
 4112 193e FF1F      		rol r31
 4113 1940 E40F      		add r30,r20
 4114 1942 F51F      		adc r31,r21
 4115 1944 EE0F      		lsl r30
 4116 1946 FF1F      		rol r31
 4117               	.LVL123:
 4118 1948 8CE3      		ldi r24,lo8(60)
 4119 194a 90E0      		ldi r25,hi8(60)
 4120 194c AC01      		movw r20,r24
 4121 194e 649F      		mul r22,r20
 4122 1950 C001      		movw r24,r0
 4123 1952 659F      		mul r22,r21
 4124 1954 900D      		add r25,r0
 4125 1956 749F      		mul r23,r20
 4126 1958 900D      		add r25,r0
 4127 195a 1124      		clr r1
 4128 195c E80F      		add r30,r24
 4129 195e F91F      		adc r31,r25
 4130 1960 E050      		subi r30,lo8(-(bridge))
 4131 1962 F040      		sbci r31,hi8(-(bridge))
 4132 1964 4481      		ldd r20,Z+4
 4133 1966 5581      		ldd r21,Z+5
 4134 1968 4130      		cpi r20,1
 4135 196a 5105      		cpc r21,__zero_reg__
 4136 196c 01F4      		brne .L268
 4137               	.LM493:
 4138 196e 2130      		cpi r18,1
 4139 1970 3105      		cpc r19,__zero_reg__
 4140 1972 01F4      		brne .L269
 4141               	.LM494:
 4142 1974 E091 0000 		lds r30,pointer
 4143 1978 F091 0000 		lds r31,(pointer)+1
 4144 197c E050      		subi r30,lo8(-(path))
 4145 197e F040      		sbci r31,hi8(-(path))
 4146 1980 8CE4      		ldi r24,lo8(76)
 4147 1982 8083      		st Z,r24
 4148               	.LM495:
 4149 1984 8183      		std Z+1,r24
 4150               	.LM496:
 4151 1986 8283      		std Z+2,r24
 4152 1988 00C0      		rjmp .L270
 4153               	.L269:
 4154               	.LM497:
 4155 198a 2230      		cpi r18,2
 4156 198c 3105      		cpc r19,__zero_reg__
 4157 198e 01F4      		brne .L271
 4158               	.LM498:
 4159 1990 E091 0000 		lds r30,pointer
 4160 1994 F091 0000 		lds r31,(pointer)+1
 4161 1998 E050      		subi r30,lo8(-(path))
 4162 199a F040      		sbci r31,hi8(-(path))
 4163 199c 85E5      		ldi r24,lo8(85)
 4164 199e 00C0      		rjmp .L308
 4165               	.L271:
 4166               	.LM499:
 4167 19a0 2330      		cpi r18,3
 4168 19a2 3105      		cpc r19,__zero_reg__
 4169 19a4 01F4      		brne .L270
 4170               	.LM500:
 4171 19a6 E091 0000 		lds r30,pointer
 4172 19aa F091 0000 		lds r31,(pointer)+1
 4173 19ae E050      		subi r30,lo8(-(path))
 4174 19b0 F040      		sbci r31,hi8(-(path))
 4175 19b2 82E5      		ldi r24,lo8(82)
 4176 19b4 00C0      		rjmp .L308
 4177               	.L270:
 4178               	.LM501:
 4179 19b6 2430      		cpi r18,4
 4180 19b8 3105      		cpc r19,__zero_reg__
 4181 19ba 01F4      		brne .L272
 4182               	.LM502:
 4183 19bc E091 0000 		lds r30,pointer
 4184 19c0 F091 0000 		lds r31,(pointer)+1
 4185 19c4 E050      		subi r30,lo8(-(path))
 4186 19c6 F040      		sbci r31,hi8(-(path))
 4187 19c8 83E5      		ldi r24,lo8(83)
 4188               	.L308:
 4189 19ca 8083      		st Z,r24
 4190               	.LM503:
 4191 19cc 8CE4      		ldi r24,lo8(76)
 4192 19ce 8183      		std Z+1,r24
 4193               	.LM504:
 4194 19d0 8283      		std Z+2,r24
 4195               	.L272:
 4196               	.LM505:
 4197 19d2 83E0      		ldi r24,lo8(3)
 4198 19d4 90E0      		ldi r25,hi8(3)
 4199 19d6 9093 0000 		sts (ori_m)+1,r25
 4200 19da 8093 0000 		sts ori_m,r24
 4201               	.L268:
 4202               	.LM506:
 4203 19de 4230      		cpi r20,2
 4204 19e0 5105      		cpc r21,__zero_reg__
 4205 19e2 01F4      		brne .L273
 4206               	.LM507:
 4207 19e4 8091 0000 		lds r24,ori_m
 4208 19e8 9091 0000 		lds r25,(ori_m)+1
 4209 19ec 8130      		cpi r24,1
 4210 19ee 9105      		cpc r25,__zero_reg__
 4211 19f0 01F4      		brne .L274
 4212               	.LM508:
 4213 19f2 E091 0000 		lds r30,pointer
 4214 19f6 F091 0000 		lds r31,(pointer)+1
 4215 19fa E050      		subi r30,lo8(-(path))
 4216 19fc F040      		sbci r31,hi8(-(path))
 4217 19fe 85E5      		ldi r24,lo8(85)
 4218 1a00 00C0      		rjmp .L318
 4219               	.L274:
 4220               	.LM509:
 4221 1a02 8230      		cpi r24,2
 4222 1a04 9105      		cpc r25,__zero_reg__
 4223 1a06 01F4      		brne .L276
 4224               	.LM510:
 4225 1a08 E091 0000 		lds r30,pointer
 4226 1a0c F091 0000 		lds r31,(pointer)+1
 4227 1a10 E050      		subi r30,lo8(-(path))
 4228 1a12 F040      		sbci r31,hi8(-(path))
 4229 1a14 82E5      		ldi r24,lo8(82)
 4230 1a16 8083      		st Z,r24
 4231 1a18 00C0      		rjmp .L309
 4232               	.L276:
 4233               	.LM511:
 4234 1a1a 8330      		cpi r24,3
 4235 1a1c 9105      		cpc r25,__zero_reg__
 4236 1a1e 01F4      		brne .L277
 4237               	.LM512:
 4238 1a20 E091 0000 		lds r30,pointer
 4239 1a24 F091 0000 		lds r31,(pointer)+1
 4240 1a28 E050      		subi r30,lo8(-(path))
 4241 1a2a F040      		sbci r31,hi8(-(path))
 4242 1a2c 83E5      		ldi r24,lo8(83)
 4243 1a2e 00C0      		rjmp .L318
 4244               	.L277:
 4245               	.LM513:
 4246 1a30 0497      		sbiw r24,4
 4247 1a32 01F4      		brne .L275
 4248               	.LM514:
 4249 1a34 E091 0000 		lds r30,pointer
 4250 1a38 F091 0000 		lds r31,(pointer)+1
 4251 1a3c E050      		subi r30,lo8(-(path))
 4252 1a3e F040      		sbci r31,hi8(-(path))
 4253 1a40 8CE4      		ldi r24,lo8(76)
 4254               	.L318:
 4255 1a42 8083      		st Z,r24
 4256               	.LM515:
 4257 1a44 82E5      		ldi r24,lo8(82)
 4258               	.L309:
 4259 1a46 8183      		std Z+1,r24
 4260               	.LM516:
 4261 1a48 8283      		std Z+2,r24
 4262               	.L275:
 4263               	.LM517:
 4264 1a4a 84E0      		ldi r24,lo8(4)
 4265 1a4c 90E0      		ldi r25,hi8(4)
 4266 1a4e 9093 0000 		sts (ori_m)+1,r25
 4267 1a52 8093 0000 		sts ori_m,r24
 4268               	.L273:
 4269               	.LM518:
 4270 1a56 B092 0000 		sts (x)+1,r11
 4271 1a5a A092 0000 		sts x,r10
 4272               	.LM519:
 4273 1a5e 9092 0000 		sts (y)+1,r9
 4274 1a62 8092 0000 		sts y,r8
 4275 1a66 00C0      		rjmp .L267
 4276               	.L321:
 4277               	.LM520:
 4278 1a68 4091 0000 		lds r20,x
 4279 1a6c 5091 0000 		lds r21,(x)+1
 4280 1a70 2091 0000 		lds r18,y
 4281 1a74 3091 0000 		lds r19,(y)+1
 4282 1a78 F901      		movw r30,r18
 4283 1a7a EE0F      		lsl r30
 4284 1a7c FF1F      		rol r31
 4285 1a7e E20F      		add r30,r18
 4286 1a80 F31F      		adc r31,r19
 4287 1a82 EE0F      		lsl r30
 4288 1a84 FF1F      		rol r31
 4289 1a86 8CE3      		ldi r24,lo8(60)
 4290 1a88 90E0      		ldi r25,hi8(60)
 4291 1a8a BC01      		movw r22,r24
 4292 1a8c 469F      		mul r20,r22
 4293 1a8e C001      		movw r24,r0
 4294 1a90 479F      		mul r20,r23
 4295 1a92 900D      		add r25,r0
 4296 1a94 569F      		mul r21,r22
 4297 1a96 900D      		add r25,r0
 4298 1a98 1124      		clr r1
 4299 1a9a E80F      		add r30,r24
 4300 1a9c F91F      		adc r31,r25
 4301 1a9e E050      		subi r30,lo8(-(bridge))
 4302 1aa0 F040      		sbci r31,hi8(-(bridge))
 4303 1aa2 6481      		ldd r22,Z+4
 4304 1aa4 7581      		ldd r23,Z+5
 4305 1aa6 6130      		cpi r22,1
 4306 1aa8 7105      		cpc r23,__zero_reg__
 4307 1aaa 01F4      		brne .L278
 4308               	.LM521:
 4309 1aac 8091 0000 		lds r24,ori_m
 4310 1ab0 9091 0000 		lds r25,(ori_m)+1
 4311 1ab4 8130      		cpi r24,1
 4312 1ab6 9105      		cpc r25,__zero_reg__
 4313 1ab8 01F4      		brne .L279
 4314               	.LM522:
 4315 1aba E091 0000 		lds r30,pointer
 4316 1abe F091 0000 		lds r31,(pointer)+1
 4317 1ac2 E050      		subi r30,lo8(-(path))
 4318 1ac4 F040      		sbci r31,hi8(-(path))
 4319 1ac6 82E5      		ldi r24,lo8(82)
 4320 1ac8 8083      		st Z,r24
 4321 1aca 00C0      		rjmp .L311
 4322               	.L279:
 4323               	.LM523:
 4324 1acc 8230      		cpi r24,2
 4325 1ace 9105      		cpc r25,__zero_reg__
 4326 1ad0 01F4      		brne .L281
 4327               	.LM524:
 4328 1ad2 E091 0000 		lds r30,pointer
 4329 1ad6 F091 0000 		lds r31,(pointer)+1
 4330 1ada E050      		subi r30,lo8(-(path))
 4331 1adc F040      		sbci r31,hi8(-(path))
 4332 1ade 83E5      		ldi r24,lo8(83)
 4333 1ae0 00C0      		rjmp .L310
 4334               	.L281:
 4335               	.LM525:
 4336 1ae2 8330      		cpi r24,3
 4337 1ae4 9105      		cpc r25,__zero_reg__
 4338 1ae6 01F4      		brne .L282
 4339               	.LM526:
 4340 1ae8 E091 0000 		lds r30,pointer
 4341 1aec F091 0000 		lds r31,(pointer)+1
 4342 1af0 E050      		subi r30,lo8(-(path))
 4343 1af2 F040      		sbci r31,hi8(-(path))
 4344 1af4 8CE4      		ldi r24,lo8(76)
 4345 1af6 00C0      		rjmp .L310
 4346               	.L282:
 4347               	.LM527:
 4348 1af8 0497      		sbiw r24,4
 4349 1afa 01F4      		brne .L280
 4350               	.LM528:
 4351 1afc E091 0000 		lds r30,pointer
 4352 1b00 F091 0000 		lds r31,(pointer)+1
 4353 1b04 E050      		subi r30,lo8(-(path))
 4354 1b06 F040      		sbci r31,hi8(-(path))
 4355 1b08 85E5      		ldi r24,lo8(85)
 4356               	.L310:
 4357 1b0a 8083      		st Z,r24
 4358               	.LM529:
 4359 1b0c 82E5      		ldi r24,lo8(82)
 4360               	.L311:
 4361 1b0e 8183      		std Z+1,r24
 4362               	.LM530:
 4363 1b10 8283      		std Z+2,r24
 4364               	.L280:
 4365               	.LM531:
 4366 1b12 83E0      		ldi r24,lo8(3)
 4367 1b14 90E0      		ldi r25,hi8(3)
 4368 1b16 9093 0000 		sts (ori_m)+1,r25
 4369 1b1a 8093 0000 		sts ori_m,r24
 4370               	.L278:
 4371               	.LM532:
 4372 1b1e 6230      		cpi r22,2
 4373 1b20 7105      		cpc r23,__zero_reg__
 4374 1b22 01F4      		brne .L283
 4375               	.LM533:
 4376 1b24 8091 0000 		lds r24,ori_m
 4377 1b28 9091 0000 		lds r25,(ori_m)+1
 4378 1b2c 8130      		cpi r24,1
 4379 1b2e 9105      		cpc r25,__zero_reg__
 4380 1b30 01F4      		brne .L284
 4381               	.LM534:
 4382 1b32 E091 0000 		lds r30,pointer
 4383 1b36 F091 0000 		lds r31,(pointer)+1
 4384 1b3a E050      		subi r30,lo8(-(path))
 4385 1b3c F040      		sbci r31,hi8(-(path))
 4386 1b3e 85E5      		ldi r24,lo8(85)
 4387 1b40 00C0      		rjmp .L319
 4388               	.L284:
 4389               	.LM535:
 4390 1b42 8230      		cpi r24,2
 4391 1b44 9105      		cpc r25,__zero_reg__
 4392 1b46 01F4      		brne .L286
 4393               	.LM536:
 4394 1b48 E091 0000 		lds r30,pointer
 4395 1b4c F091 0000 		lds r31,(pointer)+1
 4396 1b50 E050      		subi r30,lo8(-(path))
 4397 1b52 F040      		sbci r31,hi8(-(path))
 4398 1b54 82E5      		ldi r24,lo8(82)
 4399 1b56 00C0      		rjmp .L319
 4400               	.L286:
 4401               	.LM537:
 4402 1b58 8330      		cpi r24,3
 4403 1b5a 9105      		cpc r25,__zero_reg__
 4404 1b5c 01F4      		brne .L287
 4405               	.LM538:
 4406 1b5e E091 0000 		lds r30,pointer
 4407 1b62 F091 0000 		lds r31,(pointer)+1
 4408 1b66 E050      		subi r30,lo8(-(path))
 4409 1b68 F040      		sbci r31,hi8(-(path))
 4410 1b6a 83E5      		ldi r24,lo8(83)
 4411               	.L319:
 4412 1b6c 8083      		st Z,r24
 4413               	.LM539:
 4414 1b6e 8CE4      		ldi r24,lo8(76)
 4415 1b70 00C0      		rjmp .L312
 4416               	.L287:
 4417               	.LM540:
 4418 1b72 0497      		sbiw r24,4
 4419 1b74 01F4      		brne .L285
 4420               	.LM541:
 4421 1b76 E091 0000 		lds r30,pointer
 4422 1b7a F091 0000 		lds r31,(pointer)+1
 4423 1b7e E050      		subi r30,lo8(-(path))
 4424 1b80 F040      		sbci r31,hi8(-(path))
 4425 1b82 8CE4      		ldi r24,lo8(76)
 4426 1b84 8083      		st Z,r24
 4427               	.L312:
 4428               	.LM542:
 4429 1b86 8183      		std Z+1,r24
 4430               	.LM543:
 4431 1b88 8283      		std Z+2,r24
 4432               	.L285:
 4433               	.LM544:
 4434 1b8a 82E0      		ldi r24,lo8(2)
 4435 1b8c 90E0      		ldi r25,hi8(2)
 4436 1b8e 9093 0000 		sts (ori_m)+1,r25
 4437 1b92 8093 0000 		sts ori_m,r24
 4438               	.L283:
 4439               	.LM545:
 4440 1b96 4150      		subi r20,lo8(-(-1))
 4441 1b98 5040      		sbci r21,hi8(-(-1))
 4442               	.L313:
 4443 1b9a 5093 0000 		sts (x)+1,r21
 4444 1b9e 4093 0000 		sts x,r20
 4445               	.LM546:
 4446 1ba2 2150      		subi r18,lo8(-(-1))
 4447 1ba4 3040      		sbci r19,hi8(-(-1))
 4448 1ba6 3093 0000 		sts (y)+1,r19
 4449 1baa 2093 0000 		sts y,r18
 4450               	.LVL124:
 4451               	.L266:
 4452               	.LM547:
 4453 1bae 8091 0000 		lds r24,pointer
 4454 1bb2 9091 0000 		lds r25,(pointer)+1
 4455               	.LVL125:
 4456 1bb6 0396      		adiw r24,3
 4457 1bb8 9093 0000 		sts (pointer)+1,r25
 4458 1bbc 8093 0000 		sts pointer,r24
 4459 1bc0 C101      		movw r24,r2
 4460               	.LVL126:
 4461               	.L243:
 4462               	.LM548:
 4463 1bc2 4816      		cp r4,r24
 4464 1bc4 5906      		cpc r5,r25
 4465 1bc6 01F4      		brne .L288
 4466               	.LM549:
 4467 1bc8 82E0      		ldi r24,lo8(2)
 4468 1bca 90E0      		ldi r25,hi8(2)
 4469               	.LVL127:
 4470 1bcc 9093 0000 		sts (ori_m)+1,r25
 4471 1bd0 8093 0000 		sts ori_m,r24
 4472               	.LM550:
 4473 1bd4 8091 0000 		lds r24,pointer
 4474 1bd8 9091 0000 		lds r25,(pointer)+1
 4475 1bdc 0196      		adiw r24,1
 4476 1bde 9093 0000 		sts (pointer)+1,r25
 4477 1be2 8093 0000 		sts pointer,r24
 4478               	.LM551:
 4479 1be6 8091 0000 		lds r24,y
 4480 1bea 9091 0000 		lds r25,(y)+1
 4481 1bee 0197      		sbiw r24,1
 4482 1bf0 00C0      		rjmp .L315
 4483               	.LVL128:
 4484               	.L288:
 4485               	.LM552:
 4486 1bf2 E816      		cp r14,r24
 4487 1bf4 F906      		cpc r15,r25
 4488 1bf6 01F4      		brne .L290
 4489               	.LM553:
 4490 1bf8 84E0      		ldi r24,lo8(4)
 4491 1bfa 90E0      		ldi r25,hi8(4)
 4492               	.LVL129:
 4493 1bfc 9093 0000 		sts (ori_m)+1,r25
 4494 1c00 8093 0000 		sts ori_m,r24
 4495               	.LM554:
 4496 1c04 8091 0000 		lds r24,pointer
 4497 1c08 9091 0000 		lds r25,(pointer)+1
 4498 1c0c 0196      		adiw r24,1
 4499 1c0e 9093 0000 		sts (pointer)+1,r25
 4500 1c12 8093 0000 		sts pointer,r24
 4501               	.LM555:
 4502 1c16 8091 0000 		lds r24,y
 4503 1c1a 9091 0000 		lds r25,(y)+1
 4504 1c1e 0196      		adiw r24,1
 4505               	.L315:
 4506 1c20 9093 0000 		sts (y)+1,r25
 4507 1c24 8093 0000 		sts y,r24
 4508 1c28 00C0      		rjmp .L294
 4509               	.LVL130:
 4510               	.L290:
 4511               	.LM556:
 4512 1c2a 0817      		cp r16,r24
 4513 1c2c 1907      		cpc r17,r25
 4514 1c2e 01F4      		brne .L291
 4515               	.LM557:
 4516 1c30 83E0      		ldi r24,lo8(3)
 4517 1c32 90E0      		ldi r25,hi8(3)
 4518               	.LVL131:
 4519 1c34 9093 0000 		sts (ori_m)+1,r25
 4520 1c38 8093 0000 		sts ori_m,r24
 4521               	.LM558:
 4522 1c3c 8091 0000 		lds r24,pointer
 4523 1c40 9091 0000 		lds r25,(pointer)+1
 4524 1c44 0196      		adiw r24,1
 4525 1c46 9093 0000 		sts (pointer)+1,r25
 4526 1c4a 8093 0000 		sts pointer,r24
 4527               	.LM559:
 4528 1c4e 8091 0000 		lds r24,x
 4529 1c52 9091 0000 		lds r25,(x)+1
 4530 1c56 0197      		sbiw r24,1
 4531 1c58 00C0      		rjmp .L314
 4532               	.LVL132:
 4533               	.L291:
 4534               	.LM560:
 4535 1c5a C817      		cp r28,r24
 4536 1c5c D907      		cpc r29,r25
 4537 1c5e 01F4      		brne .L294
 4538               	.LM561:
 4539 1c60 81E0      		ldi r24,lo8(1)
 4540 1c62 90E0      		ldi r25,hi8(1)
 4541               	.LVL133:
 4542 1c64 9093 0000 		sts (ori_m)+1,r25
 4543 1c68 8093 0000 		sts ori_m,r24
 4544               	.LM562:
 4545 1c6c 8091 0000 		lds r24,pointer
 4546 1c70 9091 0000 		lds r25,(pointer)+1
 4547 1c74 0196      		adiw r24,1
 4548 1c76 9093 0000 		sts (pointer)+1,r25
 4549 1c7a 8093 0000 		sts pointer,r24
 4550               	.LM563:
 4551 1c7e 8091 0000 		lds r24,x
 4552 1c82 9091 0000 		lds r25,(x)+1
 4553 1c86 0196      		adiw r24,1
 4554               	.L314:
 4555 1c88 9093 0000 		sts (x)+1,r25
 4556 1c8c 8093 0000 		sts x,r24
 4557 1c90 00C0      		rjmp .L294
 4558               	.LVL134:
 4559               	.L245:
 4560               	.LM564:
 4561 1c92 AF5F      		subi r26,lo8(-1)
 4562 1c94 BF4F      		sbci r27,hi8(-1)
 4563 1c96 01F0      		breq .+2
 4564 1c98 00C0      		rjmp .L266
 4565 1c9a 00C0      		rjmp .L320
 4566               	.L267:
 4567               	.LM565:
 4568 1c9c AF5F      		subi r26,lo8(-1)
 4569 1c9e BF4F      		sbci r27,hi8(-1)
 4570               	.LVL135:
 4571 1ca0 01F0      		breq .+2
 4572 1ca2 00C0      		rjmp .L266
 4573 1ca4 00C0      		rjmp .L321
 4574               	.LVL136:
 4575               	.L294:
 4576               	/* epilogue start */
 4577               	.LM566:
 4578 1ca6 DF91      		pop r29
 4579 1ca8 CF91      		pop r28
 4580               	.LVL137:
 4581 1caa 1F91      		pop r17
 4582 1cac 0F91      		pop r16
 4583               	.LVL138:
 4584 1cae FF90      		pop r15
 4585 1cb0 EF90      		pop r14
 4586               	.LVL139:
 4587 1cb2 DF90      		pop r13
 4588 1cb4 CF90      		pop r12
 4589 1cb6 BF90      		pop r11
 4590 1cb8 AF90      		pop r10
 4591 1cba 9F90      		pop r9
 4592 1cbc 8F90      		pop r8
 4593 1cbe 7F90      		pop r7
 4594 1cc0 6F90      		pop r6
 4595 1cc2 5F90      		pop r5
 4596 1cc4 4F90      		pop r4
 4597               	.LVL140:
 4598 1cc6 3F90      		pop r3
 4599 1cc8 2F90      		pop r2
 4600               	.LVL141:
 4601 1cca 0895      		ret
 4602               	.LFE34:
 4604               	.global	simplify
 4606               	simplify:
 4607               	.LFB32:
 4608               	.LM567:
 4609 1ccc EF92      		push r14
 4610 1cce FF92      		push r15
 4611 1cd0 0F93      		push r16
 4612 1cd2 1F93      		push r17
 4613 1cd4 CF93      		push r28
 4614 1cd6 DF93      		push r29
 4615               	/* prologue: function */
 4616               	/* frame size = 0 */
 4617               	.LM568:
 4618 1cd8 83E0      		ldi r24,lo8(3)
 4619 1cda 90E0      		ldi r25,hi8(3)
 4620 1cdc 9093 0000 		sts (ori_m)+1,r25
 4621 1ce0 8093 0000 		sts ori_m,r24
 4622 1ce4 88E0      		ldi r24,lo8(8)
 4623 1ce6 90E0      		ldi r25,hi8(8)
 4624 1ce8 9093 0000 		sts (x)+1,r25
 4625 1cec 8093 0000 		sts x,r24
 4626 1cf0 86E0      		ldi r24,lo8(6)
 4627 1cf2 90E0      		ldi r25,hi8(6)
 4628 1cf4 9093 0000 		sts (y)+1,r25
 4629 1cf8 8093 0000 		sts y,r24
 4630 1cfc 00E0      		ldi r16,lo8(a+64)
 4631 1cfe 10E0      		ldi r17,hi8(a+64)
 4632 1d00 B801      		movw r22,r16
 4633 1d02 21E0      		ldi r18,lo8(1)
 4634 1d04 30E0      		ldi r19,hi8(1)
 4635 1d06 40E0      		ldi r20,lo8(0)
 4636 1d08 50E0      		ldi r21,hi8(0)
 4637 1d0a 00C0      		rjmp .L323
 4638               	.L326:
 4639               	.LM569:
 4640 1d0c 8881      		ld r24,Y
 4641 1d0e 9981      		ldd r25,Y+1
 4642 1d10 8436      		cpi r24,100
 4643 1d12 9105      		cpc r25,__zero_reg__
 4644 1d14 01F0      		breq .L393
 4645               	.L324:
 4646               	.LM570:
 4647 1d16 8D91      		ld r24,X+
 4648 1d18 9C91      		ld r25,X
 4649 1d1a 1197      		sbiw r26,1
 4650               	.L393:
 4651 1d1c 9183      		std Z+1,r25
 4652 1d1e 8083      		st Z,r24
 4653 1d20 2896      		adiw r28,8
 4654 1d22 3296      		adiw r30,2
 4655 1d24 1296      		adiw r26,2
 4656               	.LM571:
 4657 1d26 C617      		cp r28,r22
 4658 1d28 D707      		cpc r29,r23
 4659 1d2a 01F4      		brne .L326
 4660 1d2c 2F5F      		subi r18,lo8(-(1))
 4661 1d2e 3F4F      		sbci r19,hi8(-(1))
 4662 1d30 605C      		subi r22,lo8(-(64))
 4663 1d32 7F4F      		sbci r23,hi8(-(64))
 4664 1d34 4F5F      		subi r20,lo8(-(1))
 4665 1d36 5F4F      		sbci r21,hi8(-(1))
 4666               	.L323:
 4667               	.LM572:
 4668 1d38 2930      		cpi r18,9
 4669 1d3a 3105      		cpc r19,__zero_reg__
 4670 1d3c 04F4      		brge .L327
 4671 1d3e EA01      		movw r28,r20
 4672 1d40 86E0      		ldi r24,6
 4673 1d42 CC0F      	1:	lsl r28
 4674 1d44 DD1F      		rol r29
 4675 1d46 8A95      		dec r24
 4676 1d48 01F4      		brne 1b
 4677 1d4a C050      		subi r28,lo8(-(a))
 4678 1d4c D040      		sbci r29,hi8(-(a))
 4679 1d4e F901      		movw r30,r18
 4680 1d50 EE0F      		lsl r30
 4681 1d52 FF1F      		rol r31
 4682 1d54 C901      		movw r24,r18
 4683 1d56 A3E0      		ldi r26,3
 4684 1d58 880F      	1:	lsl r24
 4685 1d5a 991F      		rol r25
 4686 1d5c AA95      		dec r26
 4687 1d5e 01F4      		brne 1b
 4688 1d60 E80F      		add r30,r24
 4689 1d62 F91F      		adc r31,r25
 4690 1d64 EE0F      		lsl r30
 4691 1d66 FF1F      		rol r31
 4692 1d68 E050      		subi r30,lo8(-(test+2))
 4693 1d6a F040      		sbci r31,hi8(-(test+2))
 4694 1d6c DA01      		movw r26,r20
 4695 1d6e 84E0      		ldi r24,4
 4696 1d70 AA0F      	1:	lsl r26
 4697 1d72 BB1F      		rol r27
 4698 1d74 8A95      		dec r24
 4699 1d76 01F4      		brne 1b
 4700 1d78 A050      		subi r26,lo8(-(maze))
 4701 1d7a B040      		sbci r27,hi8(-(maze))
 4702 1d7c 00C0      		rjmp .L326
 4703               	.L327:
 4704               	.LM573:
 4705 1d7e 81E0      		ldi r24,lo8(1)
 4706 1d80 90E0      		ldi r25,hi8(1)
 4707 1d82 00C0      		rjmp .L394
 4708               	.LVL142:
 4709               	.L332:
 4710               	.LM574:
 4711 1d84 8091 0000 		lds r24,count
 4712 1d88 9091 0000 		lds r25,(count)+1
 4713 1d8c 0196      		adiw r24,1
 4714 1d8e 9093 0000 		sts (count)+1,r25
 4715 1d92 8093 0000 		sts count,r24
 4716 1d96 C1E0      		ldi r28,lo8(1)
 4717 1d98 D0E0      		ldi r29,hi8(1)
 4718               	.L331:
 4719               	.LM575:
 4720 1d9a 8091 0000 		lds r24,count
 4721 1d9e 9091 0000 		lds r25,(count)+1
 4722 1da2 0196      		adiw r24,1
 4723 1da4 9093 0000 		sts (count)+1,r25
 4724 1da8 8093 0000 		sts count,r24
 4725               	.LM576:
 4726 1dac 8091 0000 		lds r24,i
 4727 1db0 9091 0000 		lds r25,(i)+1
 4728 1db4 BE01      		movw r22,r28
 4729 1db6 0E94 0000 		call near
 4730 1dba 8093 0000 		sts update1,r24
 4731 1dbe 9093 0000 		sts update1+1,r25
 4732               	.LM577:
 4733 1dc2 9C01      		movw r18,r24
 4734 1dc4 E091 0000 		lds r30,i
 4735 1dc8 F091 0000 		lds r31,(i)+1
 4736 1dcc 3197      		sbiw r30,1
 4737 1dce 2197      		sbiw r28,1
 4738 1dd0 73E0      		ldi r23,3
 4739 1dd2 EE0F      	1:	lsl r30
 4740 1dd4 FF1F      		rol r31
 4741 1dd6 7A95      		dec r23
 4742 1dd8 01F4      		brne 1b
 4743 1dda EC0F      		add r30,r28
 4744 1ddc FD1F      		adc r31,r29
 4745 1dde 2196      		adiw r28,1
 4746 1de0 EE0F      		lsl r30
 4747 1de2 FF1F      		rol r31
 4748 1de4 E050      		subi r30,lo8(-(maze))
 4749 1de6 F040      		sbci r31,hi8(-(maze))
 4750 1de8 8081      		ld r24,Z
 4751 1dea 9181      		ldd r25,Z+1
 4752 1dec 2817      		cp r18,r24
 4753 1dee 3907      		cpc r19,r25
 4754 1df0 01F0      		breq .L329
 4755               	.LM578:
 4756 1df2 3183      		std Z+1,r19
 4757 1df4 2083      		st Z,r18
 4758               	.LM579:
 4759 1df6 1092 0000 		sts (i)+1,__zero_reg__
 4760 1dfa 1092 0000 		sts i,__zero_reg__
 4761 1dfe 00C0      		rjmp .L330
 4762               	.L329:
 4763               	.LM580:
 4764 1e00 2196      		adiw r28,1
 4765 1e02 C930      		cpi r28,9
 4766 1e04 D105      		cpc r29,__zero_reg__
 4767 1e06 01F4      		brne .L331
 4768               	.L330:
 4769               	.LM581:
 4770 1e08 8091 0000 		lds r24,i
 4771 1e0c 9091 0000 		lds r25,(i)+1
 4772 1e10 0196      		adiw r24,1
 4773               	.L394:
 4774 1e12 9093 0000 		sts (i)+1,r25
 4775 1e16 8093 0000 		sts i,r24
 4776 1e1a 8091 0000 		lds r24,i
 4777 1e1e 9091 0000 		lds r25,(i)+1
 4778 1e22 0997      		sbiw r24,9
 4779 1e24 04F4      		brge .+2
 4780 1e26 00C0      		rjmp .L332
 4781 1e28 00C0      		rjmp .L392
 4782               	.L334:
 4783               	.LM582:
 4784 1e2a 0E94 0000 		call findpath
 4785               	.L392:
 4786               	.LM583:
 4787 1e2e 8091 0000 		lds r24,x
 4788 1e32 9091 0000 		lds r25,x+1
 4789 1e36 FC01      		movw r30,r24
 4790 1e38 53E0      		ldi r21,3
 4791 1e3a EE0F      	1:	lsl r30
 4792 1e3c FF1F      		rol r31
 4793 1e3e 5A95      		dec r21
 4794 1e40 01F4      		brne 1b
 4795 1e42 880F      		lsl r24
 4796 1e44 991F      		rol r25
 4797 1e46 E80F      		add r30,r24
 4798 1e48 F91F      		adc r31,r25
 4799 1e4a 8091 0000 		lds r24,y
 4800 1e4e 9091 0000 		lds r25,(y)+1
 4801 1e52 E80F      		add r30,r24
 4802 1e54 F91F      		adc r31,r25
 4803 1e56 EE0F      		lsl r30
 4804 1e58 FF1F      		rol r31
 4805 1e5a E050      		subi r30,lo8(-(test))
 4806 1e5c F040      		sbci r31,hi8(-(test))
 4807 1e5e 8081      		ld r24,Z
 4808 1e60 9181      		ldd r25,Z+1
 4809 1e62 892B      		or r24,r25
 4810 1e64 01F4      		brne .L334
 4811 1e66 8FEF      		ldi r24,lo8(-1)
 4812 1e68 9FEF      		ldi r25,hi8(-1)
 4813               	.LVL143:
 4814               	.LBB320:
 4815               	.LBB321:
 4816               	.LBB322:
 4817               	.LBB323:
 4818               	.LM584:
 4819 1e6a 20E9      		ldi r18,lo8(400)
 4820 1e6c 31E0      		ldi r19,hi8(400)
 4821               	.LVL144:
 4822               	.L335:
 4823 1e6e F901      		movw r30,r18
 4824               	/* #APP */
 4825               	 ;  105 "c:/winavr-20100110/lib/gcc/../../avr/include/util/delay_basic.h" 1
 4826 1e70 3197      		1: sbiw r30,1
 4827 1e72 01F4      		brne 1b
 4828               	 ;  0 "" 2
 4829               	/* #NOAPP */
 4830               	.LBE323:
 4831               	.LBE322:
 4832               	.LM585:
 4833 1e74 0197      		sbiw r24,1
 4834               	.LM586:
 4835 1e76 01F4      		brne .L335
 4836               	.LBE321:
 4837               	.LBE320:
 4838               	.LM587:
 4839 1e78 80E0      		ldi r24,lo8(0)
 4840               	.LVL145:
 4841 1e7a 0E94 0000 		call lcd_gotoxy1
 4842               	.LVL146:
 4843               	.LM588:
 4844 1e7e 1092 0000 		sts (i)+1,__zero_reg__
 4845 1e82 1092 0000 		sts i,__zero_reg__
 4846 1e86 00C0      		rjmp .L336
 4847               	.L337:
 4848               	.LM589:
 4849 1e88 E050      		subi r30,lo8(-(path))
 4850 1e8a F040      		sbci r31,hi8(-(path))
 4851 1e8c 8081      		ld r24,Z
 4852 1e8e 0E94 0000 		call lcd_char
 4853               	.LM590:
 4854 1e92 8091 0000 		lds r24,i
 4855 1e96 9091 0000 		lds r25,(i)+1
 4856 1e9a 0196      		adiw r24,1
 4857 1e9c 9093 0000 		sts (i)+1,r25
 4858 1ea0 8093 0000 		sts i,r24
 4859               	.L336:
 4860 1ea4 E091 0000 		lds r30,i
 4861 1ea8 F091 0000 		lds r31,(i)+1
 4862 1eac E031      		cpi r30,16
 4863 1eae F105      		cpc r31,__zero_reg__
 4864 1eb0 04F0      		brlt .L337
 4865 1eb2 20E0      		ldi r18,lo8(path)
 4866 1eb4 E22E      		mov r14,r18
 4867 1eb6 20E0      		ldi r18,hi8(path)
 4868 1eb8 F22E      		mov r15,r18
 4869 1eba A0E0      		ldi r26,lo8(path_centre)
 4870 1ebc B0E0      		ldi r27,hi8(path_centre)
 4871 1ebe F701      		movw r30,r14
 4872 1ec0 20E0      		ldi r18,lo8(0)
 4873 1ec2 30E0      		ldi r19,hi8(0)
 4874 1ec4 00C0      		rjmp .L338
 4875               	.L339:
 4876               	.LM591:
 4877 1ec6 8191      		ld r24,Z+
 4878 1ec8 8D93      		st X+,r24
 4879 1eca 2F5F      		subi r18,lo8(-(1))
 4880 1ecc 3F4F      		sbci r19,hi8(-(1))
 4881               	.L338:
 4882               	.LM592:
 4883 1ece 2931      		cpi r18,25
 4884 1ed0 3105      		cpc r19,__zero_reg__
 4885 1ed2 04F0      		brlt .L339
 4886 1ed4 40E0      		ldi r20,lo8(0)
 4887 1ed6 50E0      		ldi r21,hi8(0)
 4888               	.LVL147:
 4889 1ed8 20E0      		ldi r18,lo8(0)
 4890 1eda 30E0      		ldi r19,hi8(0)
 4891 1edc 00C0      		rjmp .L340
 4892               	.LVL148:
 4893               	.L341:
 4894               	.LM593:
 4895 1ede 4193      		st Z+,r20
 4896 1ee0 5193      		st Z+,r21
 4897               	.LM594:
 4898 1ee2 4F5F      		subi r20,lo8(-(1))
 4899 1ee4 5F4F      		sbci r21,hi8(-(1))
 4900               	.LM595:
 4901 1ee6 0196      		adiw r24,1
 4902 1ee8 8830      		cpi r24,8
 4903 1eea 9105      		cpc r25,__zero_reg__
 4904 1eec 01F4      		brne .L341
 4905               	.LM596:
 4906 1eee 2F5F      		subi r18,lo8(-(1))
 4907 1ef0 3F4F      		sbci r19,hi8(-(1))
 4908 1ef2 A901      		movw r20,r18
 4909               	.LVL149:
 4910               	.L340:
 4911               	.LM597:
 4912 1ef4 2830      		cpi r18,8
 4913 1ef6 3105      		cpc r19,__zero_reg__
 4914 1ef8 04F4      		brge .L342
 4915 1efa F901      		movw r30,r18
 4916 1efc 94E0      		ldi r25,4
 4917 1efe EE0F      	1:	lsl r30
 4918 1f00 FF1F      		rol r31
 4919 1f02 9A95      		dec r25
 4920 1f04 01F4      		brne 1b
 4921 1f06 E050      		subi r30,lo8(-(maze))
 4922 1f08 F040      		sbci r31,hi8(-(maze))
 4923 1f0a 80E0      		ldi r24,lo8(0)
 4924 1f0c 90E0      		ldi r25,hi8(0)
 4925 1f0e 00C0      		rjmp .L341
 4926               	.LVL150:
 4927               	.L342:
 4928 1f10 60E0      		ldi r22,lo8(a+64)
 4929 1f12 70E0      		ldi r23,hi8(a+64)
 4930 1f14 21E0      		ldi r18,lo8(1)
 4931 1f16 30E0      		ldi r19,hi8(1)
 4932 1f18 40E0      		ldi r20,lo8(0)
 4933 1f1a 50E0      		ldi r21,hi8(0)
 4934               	.LVL151:
 4935 1f1c 00C0      		rjmp .L343
 4936               	.LVL152:
 4937               	.L346:
 4938               	.LM598:
 4939 1f1e 8881      		ld r24,Y
 4940 1f20 9981      		ldd r25,Y+1
 4941 1f22 8436      		cpi r24,100
 4942 1f24 9105      		cpc r25,__zero_reg__
 4943 1f26 01F0      		breq .L395
 4944               	.L344:
 4945               	.LM599:
 4946 1f28 8D91      		ld r24,X+
 4947 1f2a 9C91      		ld r25,X
 4948 1f2c 1197      		sbiw r26,1
 4949               	.L395:
 4950 1f2e 9183      		std Z+1,r25
 4951 1f30 8083      		st Z,r24
 4952 1f32 2896      		adiw r28,8
 4953 1f34 3296      		adiw r30,2
 4954 1f36 1296      		adiw r26,2
 4955               	.LM600:
 4956 1f38 C617      		cp r28,r22
 4957 1f3a D707      		cpc r29,r23
 4958 1f3c 01F4      		brne .L346
 4959 1f3e 2F5F      		subi r18,lo8(-(1))
 4960 1f40 3F4F      		sbci r19,hi8(-(1))
 4961 1f42 605C      		subi r22,lo8(-(64))
 4962 1f44 7F4F      		sbci r23,hi8(-(64))
 4963 1f46 4F5F      		subi r20,lo8(-(1))
 4964 1f48 5F4F      		sbci r21,hi8(-(1))
 4965               	.LVL153:
 4966               	.L343:
 4967               	.LM601:
 4968 1f4a 2930      		cpi r18,9
 4969 1f4c 3105      		cpc r19,__zero_reg__
 4970 1f4e 04F4      		brge .L347
 4971 1f50 EA01      		movw r28,r20
 4972 1f52 86E0      		ldi r24,6
 4973 1f54 CC0F      	1:	lsl r28
 4974 1f56 DD1F      		rol r29
 4975 1f58 8A95      		dec r24
 4976 1f5a 01F4      		brne 1b
 4977               	.LVL154:
 4978 1f5c C050      		subi r28,lo8(-(a))
 4979 1f5e D040      		sbci r29,hi8(-(a))
 4980 1f60 F901      		movw r30,r18
 4981 1f62 EE0F      		lsl r30
 4982 1f64 FF1F      		rol r31
 4983 1f66 C901      		movw r24,r18
 4984 1f68 A3E0      		ldi r26,3
 4985 1f6a 880F      	1:	lsl r24
 4986 1f6c 991F      		rol r25
 4987 1f6e AA95      		dec r26
 4988 1f70 01F4      		brne 1b
 4989 1f72 E80F      		add r30,r24
 4990 1f74 F91F      		adc r31,r25
 4991 1f76 EE0F      		lsl r30
 4992 1f78 FF1F      		rol r31
 4993 1f7a E050      		subi r30,lo8(-(test+2))
 4994 1f7c F040      		sbci r31,hi8(-(test+2))
 4995 1f7e DA01      		movw r26,r20
 4996 1f80 84E0      		ldi r24,4
 4997 1f82 AA0F      	1:	lsl r26
 4998 1f84 BB1F      		rol r27
 4999 1f86 8A95      		dec r24
 5000 1f88 01F4      		brne 1b
 5001 1f8a A050      		subi r26,lo8(-(maze))
 5002 1f8c B040      		sbci r27,hi8(-(maze))
 5003 1f8e 00C0      		rjmp .L346
 5004               	.LVL155:
 5005               	.L347:
 5006               	.LM602:
 5007 1f90 83E0      		ldi r24,lo8(3)
 5008 1f92 90E0      		ldi r25,hi8(3)
 5009               	.LVL156:
 5010 1f94 9093 0000 		sts (ori_m)+1,r25
 5011 1f98 8093 0000 		sts ori_m,r24
 5012 1f9c 88E0      		ldi r24,lo8(8)
 5013 1f9e 90E0      		ldi r25,hi8(8)
 5014 1fa0 9093 0000 		sts (x)+1,r25
 5015 1fa4 8093 0000 		sts x,r24
 5016 1fa8 86E0      		ldi r24,lo8(6)
 5017 1faa 90E0      		ldi r25,hi8(6)
 5018 1fac 9093 0000 		sts (y)+1,r25
 5019 1fb0 8093 0000 		sts y,r24
 5020               	.LM603:
 5021 1fb4 81E0      		ldi r24,lo8(1)
 5022 1fb6 90E0      		ldi r25,hi8(1)
 5023 1fb8 00C0      		rjmp .L396
 5024               	.L352:
 5025               	.LM604:
 5026 1fba 8091 0000 		lds r24,count
 5027 1fbe 9091 0000 		lds r25,(count)+1
 5028 1fc2 0196      		adiw r24,1
 5029 1fc4 9093 0000 		sts (count)+1,r25
 5030 1fc8 8093 0000 		sts count,r24
 5031 1fcc C1E0      		ldi r28,lo8(1)
 5032 1fce D0E0      		ldi r29,hi8(1)
 5033               	.L351:
 5034               	.LM605:
 5035 1fd0 8091 0000 		lds r24,count
 5036 1fd4 9091 0000 		lds r25,(count)+1
 5037 1fd8 0196      		adiw r24,1
 5038 1fda 9093 0000 		sts (count)+1,r25
 5039 1fde 8093 0000 		sts count,r24
 5040               	.LM606:
 5041 1fe2 8091 0000 		lds r24,i
 5042 1fe6 9091 0000 		lds r25,(i)+1
 5043 1fea BE01      		movw r22,r28
 5044 1fec 0E94 0000 		call near
 5045 1ff0 8093 0000 		sts update1,r24
 5046 1ff4 9093 0000 		sts update1+1,r25
 5047               	.LM607:
 5048 1ff8 9C01      		movw r18,r24
 5049 1ffa E091 0000 		lds r30,i
 5050 1ffe F091 0000 		lds r31,(i)+1
 5051 2002 3197      		sbiw r30,1
 5052 2004 2197      		sbiw r28,1
 5053 2006 53E0      		ldi r21,3
 5054 2008 EE0F      	1:	lsl r30
 5055 200a FF1F      		rol r31
 5056 200c 5A95      		dec r21
 5057 200e 01F4      		brne 1b
 5058 2010 EC0F      		add r30,r28
 5059 2012 FD1F      		adc r31,r29
 5060 2014 2196      		adiw r28,1
 5061 2016 EE0F      		lsl r30
 5062 2018 FF1F      		rol r31
 5063 201a E050      		subi r30,lo8(-(maze))
 5064 201c F040      		sbci r31,hi8(-(maze))
 5065 201e 8081      		ld r24,Z
 5066 2020 9181      		ldd r25,Z+1
 5067 2022 2817      		cp r18,r24
 5068 2024 3907      		cpc r19,r25
 5069 2026 01F0      		breq .L349
 5070               	.LM608:
 5071 2028 3183      		std Z+1,r19
 5072 202a 2083      		st Z,r18
 5073               	.LM609:
 5074 202c 1092 0000 		sts (i)+1,__zero_reg__
 5075 2030 1092 0000 		sts i,__zero_reg__
 5076 2034 00C0      		rjmp .L350
 5077               	.L349:
 5078               	.LM610:
 5079 2036 2196      		adiw r28,1
 5080 2038 C930      		cpi r28,9
 5081 203a D105      		cpc r29,__zero_reg__
 5082 203c 01F4      		brne .L351
 5083               	.L350:
 5084               	.LM611:
 5085 203e 8091 0000 		lds r24,i
 5086 2042 9091 0000 		lds r25,(i)+1
 5087 2046 0196      		adiw r24,1
 5088               	.L396:
 5089 2048 9093 0000 		sts (i)+1,r25
 5090 204c 8093 0000 		sts i,r24
 5091 2050 8091 0000 		lds r24,i
 5092 2054 9091 0000 		lds r25,(i)+1
 5093 2058 0997      		sbiw r24,9
 5094 205a 04F4      		brge .+2
 5095 205c 00C0      		rjmp .L352
 5096               	.LM612:
 5097 205e 1092 0000 		sts (pointer)+1,__zero_reg__
 5098 2062 1092 0000 		sts pointer,__zero_reg__
 5099 2066 00C0      		rjmp .L353
 5100               	.L354:
 5101               	.LM613:
 5102 2068 0E94 0000 		call findpath
 5103               	.L353:
 5104               	.LM614:
 5105 206c 8091 0000 		lds r24,x
 5106 2070 9091 0000 		lds r25,x+1
 5107 2074 FC01      		movw r30,r24
 5108 2076 33E0      		ldi r19,3
 5109 2078 EE0F      	1:	lsl r30
 5110 207a FF1F      		rol r31
 5111 207c 3A95      		dec r19
 5112 207e 01F4      		brne 1b
 5113 2080 880F      		lsl r24
 5114 2082 991F      		rol r25
 5115 2084 E80F      		add r30,r24
 5116 2086 F91F      		adc r31,r25
 5117 2088 8091 0000 		lds r24,y
 5118 208c 9091 0000 		lds r25,(y)+1
 5119 2090 E80F      		add r30,r24
 5120 2092 F91F      		adc r31,r25
 5121 2094 EE0F      		lsl r30
 5122 2096 FF1F      		rol r31
 5123 2098 E050      		subi r30,lo8(-(test))
 5124 209a F040      		sbci r31,hi8(-(test))
 5125 209c 8081      		ld r24,Z
 5126 209e 9181      		ldd r25,Z+1
 5127 20a0 892B      		or r24,r25
 5128 20a2 01F4      		brne .L354
 5129 20a4 8FEF      		ldi r24,lo8(-1)
 5130 20a6 9FEF      		ldi r25,hi8(-1)
 5131               	.LVL157:
 5132               	.LBB324:
 5133               	.LBB325:
 5134               	.LBB326:
 5135               	.LBB327:
 5136               	.LM615:
 5137 20a8 20E9      		ldi r18,lo8(400)
 5138 20aa 31E0      		ldi r19,hi8(400)
 5139               	.LVL158:
 5140               	.L355:
 5141 20ac F901      		movw r30,r18
 5142               	/* #APP */
 5143               	 ;  105 "c:/winavr-20100110/lib/gcc/../../avr/include/util/delay_basic.h" 1
 5144 20ae 3197      		1: sbiw r30,1
 5145 20b0 01F4      		brne 1b
 5146               	 ;  0 "" 2
 5147               	/* #NOAPP */
 5148               	.LBE327:
 5149               	.LBE326:
 5150               	.LM616:
 5151 20b2 0197      		sbiw r24,1
 5152               	.LM617:
 5153 20b4 01F4      		brne .L355
 5154               	.LBE325:
 5155               	.LBE324:
 5156               	.LM618:
 5157 20b6 80E0      		ldi r24,lo8(0)
 5158               	.LVL159:
 5159 20b8 0E94 0000 		call lcd_gotoxy1
 5160               	.LVL160:
 5161               	.LM619:
 5162 20bc 1092 0000 		sts (i)+1,__zero_reg__
 5163 20c0 1092 0000 		sts i,__zero_reg__
 5164 20c4 00C0      		rjmp .L356
 5165               	.L357:
 5166               	.LM620:
 5167 20c6 E050      		subi r30,lo8(-(path))
 5168 20c8 F040      		sbci r31,hi8(-(path))
 5169 20ca 8081      		ld r24,Z
 5170 20cc 0E94 0000 		call lcd_char
 5171               	.LM621:
 5172 20d0 8091 0000 		lds r24,i
 5173 20d4 9091 0000 		lds r25,(i)+1
 5174 20d8 0196      		adiw r24,1
 5175 20da 9093 0000 		sts (i)+1,r25
 5176 20de 8093 0000 		sts i,r24
 5177               	.L356:
 5178 20e2 E091 0000 		lds r30,i
 5179 20e6 F091 0000 		lds r31,(i)+1
 5180 20ea E031      		cpi r30,16
 5181 20ec F105      		cpc r31,__zero_reg__
 5182 20ee 04F0      		brlt .L357
 5183 20f0 A0E0      		ldi r26,lo8(path_end_left)
 5184 20f2 B0E0      		ldi r27,hi8(path_end_left)
 5185 20f4 E0E0      		ldi r30,lo8(path)
 5186 20f6 F0E0      		ldi r31,hi8(path)
 5187 20f8 20E0      		ldi r18,lo8(0)
 5188 20fa 30E0      		ldi r19,hi8(0)
 5189 20fc 00C0      		rjmp .L358
 5190               	.L359:
 5191               	.LM622:
 5192 20fe 8191      		ld r24,Z+
 5193 2100 8D93      		st X+,r24
 5194 2102 2F5F      		subi r18,lo8(-(1))
 5195 2104 3F4F      		sbci r19,hi8(-(1))
 5196               	.L358:
 5197               	.LM623:
 5198 2106 2931      		cpi r18,25
 5199 2108 3105      		cpc r19,__zero_reg__
 5200 210a 04F0      		brlt .L359
 5201 210c 40E0      		ldi r20,lo8(0)
 5202 210e 50E0      		ldi r21,hi8(0)
 5203               	.LVL161:
 5204 2110 20E0      		ldi r18,lo8(0)
 5205 2112 30E0      		ldi r19,hi8(0)
 5206 2114 00C0      		rjmp .L360
 5207               	.LVL162:
 5208               	.L361:
 5209               	.LM624:
 5210 2116 5183      		std Z+1,r21
 5211 2118 4083      		st Z,r20
 5212               	.LM625:
 5213 211a 4F5F      		subi r20,lo8(-(1))
 5214 211c 5F4F      		sbci r21,hi8(-(1))
 5215               	.LM626:
 5216 211e 0197      		sbiw r24,1
 5217 2120 3297      		sbiw r30,2
 5218 2122 6FEF      		ldi r22,hi8(-1)
 5219 2124 8F3F      		cpi r24,lo8(-1)
 5220 2126 9607      		cpc r25,r22
 5221 2128 01F4      		brne .L361
 5222               	.LM627:
 5223 212a 2F5F      		subi r18,lo8(-(1))
 5224 212c 3F4F      		sbci r19,hi8(-(1))
 5225 212e A901      		movw r20,r18
 5226               	.LVL163:
 5227               	.L360:
 5228               	.LM628:
 5229 2130 2830      		cpi r18,8
 5230 2132 3105      		cpc r19,__zero_reg__
 5231 2134 04F4      		brge .L362
 5232 2136 F901      		movw r30,r18
 5233 2138 84E0      		ldi r24,4
 5234 213a EE0F      	1:	lsl r30
 5235 213c FF1F      		rol r31
 5236 213e 8A95      		dec r24
 5237 2140 01F4      		brne 1b
 5238               	.LVL164:
 5239 2142 E050      		subi r30,lo8(-(maze+14))
 5240 2144 F040      		sbci r31,hi8(-(maze+14))
 5241 2146 87E0      		ldi r24,lo8(7)
 5242 2148 90E0      		ldi r25,hi8(7)
 5243               	.LVL165:
 5244 214a 00C0      		rjmp .L361
 5245               	.LVL166:
 5246               	.L362:
 5247               	.LM629:
 5248 214c 83E0      		ldi r24,lo8(3)
 5249 214e 90E0      		ldi r25,hi8(3)
 5250               	.LVL167:
 5251 2150 9093 0000 		sts (ori_m)+1,r25
 5252 2154 8093 0000 		sts ori_m,r24
 5253 2158 88E0      		ldi r24,lo8(8)
 5254 215a 90E0      		ldi r25,hi8(8)
 5255 215c 9093 0000 		sts (x)+1,r25
 5256 2160 8093 0000 		sts x,r24
 5257 2164 86E0      		ldi r24,lo8(6)
 5258 2166 90E0      		ldi r25,hi8(6)
 5259 2168 9093 0000 		sts (y)+1,r25
 5260 216c 8093 0000 		sts y,r24
 5261 2170 21E0      		ldi r18,lo8(1)
 5262 2172 30E0      		ldi r19,hi8(1)
 5263 2174 40E0      		ldi r20,lo8(0)
 5264 2176 50E0      		ldi r21,hi8(0)
 5265               	.LVL168:
 5266 2178 00C0      		rjmp .L363
 5267               	.LVL169:
 5268               	.L366:
 5269               	.LM630:
 5270 217a 8881      		ld r24,Y
 5271 217c 9981      		ldd r25,Y+1
 5272 217e 8436      		cpi r24,100
 5273 2180 9105      		cpc r25,__zero_reg__
 5274 2182 01F0      		breq .L397
 5275               	.L364:
 5276               	.LM631:
 5277 2184 8D91      		ld r24,X+
 5278 2186 9C91      		ld r25,X
 5279 2188 1197      		sbiw r26,1
 5280               	.L397:
 5281 218a 9183      		std Z+1,r25
 5282 218c 8083      		st Z,r24
 5283 218e 2896      		adiw r28,8
 5284 2190 3296      		adiw r30,2
 5285 2192 1296      		adiw r26,2
 5286               	.LM632:
 5287 2194 C017      		cp r28,r16
 5288 2196 D107      		cpc r29,r17
 5289 2198 01F4      		brne .L366
 5290 219a 2F5F      		subi r18,lo8(-(1))
 5291 219c 3F4F      		sbci r19,hi8(-(1))
 5292 219e 005C      		subi r16,lo8(-(64))
 5293 21a0 1F4F      		sbci r17,hi8(-(64))
 5294 21a2 4F5F      		subi r20,lo8(-(1))
 5295 21a4 5F4F      		sbci r21,hi8(-(1))
 5296               	.LVL170:
 5297               	.L363:
 5298               	.LM633:
 5299 21a6 2930      		cpi r18,9
 5300 21a8 3105      		cpc r19,__zero_reg__
 5301 21aa 04F4      		brge .L367
 5302 21ac EA01      		movw r28,r20
 5303               	.LVL171:
 5304 21ae B6E0      		ldi r27,6
 5305 21b0 CC0F      	1:	lsl r28
 5306 21b2 DD1F      		rol r29
 5307 21b4 BA95      		dec r27
 5308 21b6 01F4      		brne 1b
 5309 21b8 C050      		subi r28,lo8(-(a))
 5310 21ba D040      		sbci r29,hi8(-(a))
 5311 21bc F901      		movw r30,r18
 5312 21be EE0F      		lsl r30
 5313 21c0 FF1F      		rol r31
 5314 21c2 C901      		movw r24,r18
 5315 21c4 73E0      		ldi r23,3
 5316 21c6 880F      	1:	lsl r24
 5317 21c8 991F      		rol r25
 5318 21ca 7A95      		dec r23
 5319 21cc 01F4      		brne 1b
 5320 21ce E80F      		add r30,r24
 5321 21d0 F91F      		adc r31,r25
 5322 21d2 EE0F      		lsl r30
 5323 21d4 FF1F      		rol r31
 5324 21d6 E050      		subi r30,lo8(-(test+2))
 5325 21d8 F040      		sbci r31,hi8(-(test+2))
 5326 21da DA01      		movw r26,r20
 5327 21dc 94E0      		ldi r25,4
 5328 21de AA0F      	1:	lsl r26
 5329 21e0 BB1F      		rol r27
 5330 21e2 9A95      		dec r25
 5331 21e4 01F4      		brne 1b
 5332 21e6 A050      		subi r26,lo8(-(maze))
 5333 21e8 B040      		sbci r27,hi8(-(maze))
 5334 21ea 00C0      		rjmp .L366
 5335               	.LVL172:
 5336               	.L367:
 5337               	.LM634:
 5338 21ec 81E0      		ldi r24,lo8(1)
 5339 21ee 90E0      		ldi r25,hi8(1)
 5340 21f0 00C0      		rjmp .L398
 5341               	.L372:
 5342               	.LM635:
 5343 21f2 8091 0000 		lds r24,count
 5344 21f6 9091 0000 		lds r25,(count)+1
 5345 21fa 0196      		adiw r24,1
 5346 21fc 9093 0000 		sts (count)+1,r25
 5347 2200 8093 0000 		sts count,r24
 5348 2204 C1E0      		ldi r28,lo8(1)
 5349 2206 D0E0      		ldi r29,hi8(1)
 5350               	.L371:
 5351               	.LM636:
 5352 2208 8091 0000 		lds r24,count
 5353 220c 9091 0000 		lds r25,(count)+1
 5354 2210 0196      		adiw r24,1
 5355 2212 9093 0000 		sts (count)+1,r25
 5356 2216 8093 0000 		sts count,r24
 5357               	.LM637:
 5358 221a 8091 0000 		lds r24,i
 5359 221e 9091 0000 		lds r25,(i)+1
 5360 2222 BE01      		movw r22,r28
 5361 2224 0E94 0000 		call near
 5362 2228 8093 0000 		sts update1,r24
 5363 222c 9093 0000 		sts update1+1,r25
 5364               	.LM638:
 5365 2230 9C01      		movw r18,r24
 5366 2232 E091 0000 		lds r30,i
 5367 2236 F091 0000 		lds r31,(i)+1
 5368 223a 3197      		sbiw r30,1
 5369 223c 2197      		sbiw r28,1
 5370 223e 83E0      		ldi r24,3
 5371 2240 EE0F      	1:	lsl r30
 5372 2242 FF1F      		rol r31
 5373 2244 8A95      		dec r24
 5374 2246 01F4      		brne 1b
 5375 2248 EC0F      		add r30,r28
 5376 224a FD1F      		adc r31,r29
 5377 224c 2196      		adiw r28,1
 5378 224e EE0F      		lsl r30
 5379 2250 FF1F      		rol r31
 5380 2252 E050      		subi r30,lo8(-(maze))
 5381 2254 F040      		sbci r31,hi8(-(maze))
 5382 2256 8081      		ld r24,Z
 5383 2258 9181      		ldd r25,Z+1
 5384 225a 2817      		cp r18,r24
 5385 225c 3907      		cpc r19,r25
 5386 225e 01F0      		breq .L369
 5387               	.LM639:
 5388 2260 3183      		std Z+1,r19
 5389 2262 2083      		st Z,r18
 5390               	.LM640:
 5391 2264 1092 0000 		sts (i)+1,__zero_reg__
 5392 2268 1092 0000 		sts i,__zero_reg__
 5393 226c 00C0      		rjmp .L370
 5394               	.L369:
 5395               	.LM641:
 5396 226e 2196      		adiw r28,1
 5397 2270 C930      		cpi r28,9
 5398 2272 D105      		cpc r29,__zero_reg__
 5399 2274 01F4      		brne .L371
 5400               	.L370:
 5401               	.LM642:
 5402 2276 8091 0000 		lds r24,i
 5403 227a 9091 0000 		lds r25,(i)+1
 5404 227e 0196      		adiw r24,1
 5405               	.L398:
 5406 2280 9093 0000 		sts (i)+1,r25
 5407 2284 8093 0000 		sts i,r24
 5408 2288 8091 0000 		lds r24,i
 5409 228c 9091 0000 		lds r25,(i)+1
 5410 2290 0997      		sbiw r24,9
 5411 2292 04F4      		brge .+2
 5412 2294 00C0      		rjmp .L372
 5413               	.LM643:
 5414 2296 1092 0000 		sts (pointer)+1,__zero_reg__
 5415 229a 1092 0000 		sts pointer,__zero_reg__
 5416 229e 00C0      		rjmp .L373
 5417               	.L374:
 5418               	.LM644:
 5419 22a0 0E94 0000 		call findpath
 5420               	.L373:
 5421               	.LM645:
 5422 22a4 8091 0000 		lds r24,x
 5423 22a8 9091 0000 		lds r25,x+1
 5424 22ac FC01      		movw r30,r24
 5425 22ae 13E0      		ldi r17,3
 5426 22b0 EE0F      	1:	lsl r30
 5427 22b2 FF1F      		rol r31
 5428 22b4 1A95      		dec r17
 5429 22b6 01F4      		brne 1b
 5430 22b8 880F      		lsl r24
 5431 22ba 991F      		rol r25
 5432 22bc E80F      		add r30,r24
 5433 22be F91F      		adc r31,r25
 5434 22c0 8091 0000 		lds r24,y
 5435 22c4 9091 0000 		lds r25,(y)+1
 5436 22c8 E80F      		add r30,r24
 5437 22ca F91F      		adc r31,r25
 5438 22cc EE0F      		lsl r30
 5439 22ce FF1F      		rol r31
 5440 22d0 E050      		subi r30,lo8(-(test))
 5441 22d2 F040      		sbci r31,hi8(-(test))
 5442 22d4 8081      		ld r24,Z
 5443 22d6 9181      		ldd r25,Z+1
 5444 22d8 892B      		or r24,r25
 5445 22da 01F4      		brne .L374
 5446 22dc 8FEF      		ldi r24,lo8(-1)
 5447 22de 9FEF      		ldi r25,hi8(-1)
 5448               	.LVL173:
 5449               	.LBB328:
 5450               	.LBB329:
 5451               	.LBB330:
 5452               	.LBB331:
 5453               	.LM646:
 5454 22e0 20E9      		ldi r18,lo8(400)
 5455 22e2 31E0      		ldi r19,hi8(400)
 5456               	.LVL174:
 5457               	.L375:
 5458 22e4 F901      		movw r30,r18
 5459               	/* #APP */
 5460               	 ;  105 "c:/winavr-20100110/lib/gcc/../../avr/include/util/delay_basic.h" 1
 5461 22e6 3197      		1: sbiw r30,1
 5462 22e8 01F4      		brne 1b
 5463               	 ;  0 "" 2
 5464               	/* #NOAPP */
 5465               	.LBE331:
 5466               	.LBE330:
 5467               	.LM647:
 5468 22ea 0197      		sbiw r24,1
 5469               	.LM648:
 5470 22ec 01F4      		brne .L375
 5471               	.LBE329:
 5472               	.LBE328:
 5473               	.LM649:
 5474 22ee 80E0      		ldi r24,lo8(0)
 5475               	.LVL175:
 5476 22f0 0E94 0000 		call lcd_gotoxy1
 5477               	.LVL176:
 5478               	.LM650:
 5479 22f4 1092 0000 		sts (i)+1,__zero_reg__
 5480 22f8 1092 0000 		sts i,__zero_reg__
 5481 22fc 00C0      		rjmp .L376
 5482               	.L377:
 5483               	.LM651:
 5484 22fe E050      		subi r30,lo8(-(path))
 5485 2300 F040      		sbci r31,hi8(-(path))
 5486 2302 8081      		ld r24,Z
 5487 2304 0E94 0000 		call lcd_char
 5488               	.LM652:
 5489 2308 8091 0000 		lds r24,i
 5490 230c 9091 0000 		lds r25,(i)+1
 5491 2310 0196      		adiw r24,1
 5492 2312 9093 0000 		sts (i)+1,r25
 5493 2316 8093 0000 		sts i,r24
 5494               	.L376:
 5495 231a E091 0000 		lds r30,i
 5496 231e F091 0000 		lds r31,(i)+1
 5497 2322 E031      		cpi r30,16
 5498 2324 F105      		cpc r31,__zero_reg__
 5499 2326 04F0      		brlt .L377
 5500 2328 E0E0      		ldi r30,lo8(path_end_right)
 5501 232a F0E0      		ldi r31,hi8(path_end_right)
 5502 232c 20E0      		ldi r18,lo8(0)
 5503 232e 30E0      		ldi r19,hi8(0)
 5504 2330 00C0      		rjmp .L378
 5505               	.L379:
 5506               	.LM653:
 5507 2332 D701      		movw r26,r14
 5508 2334 8D91      		ld r24,X+
 5509 2336 7D01      		movw r14,r26
 5510 2338 8193      		st Z+,r24
 5511 233a 2F5F      		subi r18,lo8(-(1))
 5512 233c 3F4F      		sbci r19,hi8(-(1))
 5513               	.L378:
 5514               	.LM654:
 5515 233e 2931      		cpi r18,25
 5516 2340 3105      		cpc r19,__zero_reg__
 5517 2342 04F0      		brlt .L379
 5518 2344 3093 0000 		sts (i)+1,r19
 5519 2348 2093 0000 		sts i,r18
 5520               	/* epilogue start */
 5521               	.LM655:
 5522 234c DF91      		pop r29
 5523 234e CF91      		pop r28
 5524               	.LVL177:
 5525 2350 1F91      		pop r17
 5526 2352 0F91      		pop r16
 5527 2354 FF90      		pop r15
 5528 2356 EF90      		pop r14
 5529 2358 0895      		ret
 5530               	.LFE32:
 5532               	.global	reach
 5534               	reach:
 5535               	.LFB38:
 5536               	.LM656:
 5537 235a 0F93      		push r16
 5538 235c 1F93      		push r17
 5539 235e CF93      		push r28
 5540 2360 DF93      		push r29
 5541               	/* prologue: function */
 5542               	/* frame size = 0 */
 5543               	.LM657:
 5544 2362 C0E0      		ldi r28,lo8(0)
 5545 2364 D0E0      		ldi r29,hi8(0)
 5546               	.LVL178:
 5547               	.LM658:
 5548 2366 01E0      		ldi r16,lo8(1)
 5549 2368 10E0      		ldi r17,hi8(1)
 5550               	.L401:
 5551               	.LM659:
 5552 236a 0E94 0000 		call linefollower
 5553               	.LM660:
 5554 236e 8091 0000 		lds r24,f2
 5555 2372 9091 0000 		lds r25,(f2)+1
 5556 2376 892B      		or r24,r25
 5557 2378 01F4      		brne .L400
 5558               	.LM661:
 5559 237a 2196      		adiw r28,1
 5560               	.LM662:
 5561 237c 1093 0000 		sts (f2)+1,r17
 5562 2380 0093 0000 		sts f2,r16
 5563               	.L400:
 5564               	.LM663:
 5565 2384 C230      		cpi r28,2
 5566 2386 D105      		cpc r29,__zero_reg__
 5567 2388 01F4      		brne .L401
 5568               	.LM664:
 5569 238a 0E94 0000 		call inch
 5570               	.LM665:
 5571 238e 82E5      		ldi r24,lo8(82)
 5572 2390 0E94 0000 		call turn
 5573               	.LM666:
 5574 2394 0E94 0000 		call inchb
 5575               	.LM667:
 5576 2398 0E94 0000 		call inchb
 5577               	.LM668:
 5578 239c 8EE4      		ldi r24,lo8(78)
 5579 239e 0E94 0000 		call turn
 5580               	/* epilogue start */
 5581               	.LM669:
 5582 23a2 DF91      		pop r29
 5583 23a4 CF91      		pop r28
 5584               	.LVL179:
 5585 23a6 1F91      		pop r17
 5586 23a8 0F91      		pop r16
 5587 23aa 0895      		ret
 5588               	.LFE38:
 5590               	.global	final_show
 5592               	final_show:
 5593               	.LFB36:
 5594               	.LM670:
 5595               	/* prologue: function */
 5596               	/* frame size = 0 */
 5597               	.LM671:
 5598 23ac 0E94 0000 		call reach
 5599               	.L440:
 5600               	.LM672:
 5601 23b0 CE9B      		sbis 57-32,6
 5602 23b2 00C0      		rjmp .L405
 5603 23b4 CF9B      		sbis 57-32,7
 5604 23b6 00C0      		rjmp .L405
 5605               	.LM673:
 5606 23b8 81E0      		ldi r24,lo8(1)
 5607 23ba 8093 0000 		sts rec,r24
 5608               	.LM674:
 5609 23be 81E0      		ldi r24,lo8(1)
 5610 23c0 90E0      		ldi r25,hi8(1)
 5611 23c2 9093 0000 		sts (flag)+1,r25
 5612 23c6 8093 0000 		sts flag,r24
 5613 23ca 00C0      		rjmp .L406
 5614               	.L405:
 5615               	.LM675:
 5616 23cc CE99      		sbic 57-32,6
 5617 23ce 00C0      		rjmp .L407
 5618 23d0 CF99      		sbic 57-32,7
 5619 23d2 00C0      		rjmp .L443
 5620               	.L407:
 5621               	.LM676:
 5622 23d4 CE9B      		sbis 57-32,6
 5623 23d6 00C0      		rjmp .L440
 5624 23d8 CF99      		sbic 57-32,7
 5625 23da 00C0      		rjmp .L440
 5626               	.L443:
 5627               	.LM677:
 5628 23dc 82E0      		ldi r24,lo8(2)
 5629 23de 8093 0000 		sts rec,r24
 5630               	.L406:
 5631               	.LM678:
 5632 23e2 0E94 0000 		call inch
 5633 23e6 20E0      		ldi r18,lo8(0)
 5634 23e8 30E0      		ldi r19,hi8(0)
 5635               	.LVL180:
 5636               	.LBB332:
 5637               	.LBB333:
 5638               	.LBB334:
 5639               	.LBB335:
 5640               	.LBB336:
 5641               	.LBB337:
 5642               	.LM679:
 5643 23ea 48EC      		ldi r20,lo8(200)
 5644 23ec 50E0      		ldi r21,hi8(200)
 5645               	.L409:
 5646               	.LBE337:
 5647               	.LBE336:
 5648               	.LBE335:
 5649               	.LBE334:
 5650               	.LBE333:
 5651               	.LBE332:
 5652               	.LM680:
 5653 23ee C09A      		sbi 56-32,0
 5654               	.LM681:
 5655 23f0 C198      		cbi 56-32,1
 5656               	.LBB343:
 5657               	.LBB342:
 5658               	.LBB341:
 5659               	.LBB340:
 5660               	.LBB339:
 5661               	.LBB338:
 5662               	.LM682:
 5663 23f2 CA01      		movw r24,r20
 5664               	.LVL181:
 5665               	/* #APP */
 5666               	 ;  105 "c:/winavr-20100110/lib/gcc/../../avr/include/util/delay_basic.h" 1
 5667 23f4 0197      		1: sbiw r24,1
 5668 23f6 01F4      		brne 1b
 5669               	 ;  0 "" 2
 5670               	/* #NOAPP */
 5671               	.LBE338:
 5672               	.LBE339:
 5673               	.LBE340:
 5674               	.LBE341:
 5675               	.LBE342:
 5676               	.LBE343:
 5677               	.LM683:
 5678 23f8 C09A      		sbi 56-32,0
 5679               	.LM684:
 5680 23fa C19A      		sbi 56-32,1
 5681               	.LBB344:
 5682               	.LBB345:
 5683               	.LBB346:
 5684               	.LBB347:
 5685               	.LBB348:
 5686               	.LBB349:
 5687               	.LM685:
 5688 23fc CA01      		movw r24,r20
 5689               	.LVL182:
 5690               	/* #APP */
 5691               	 ;  105 "c:/winavr-20100110/lib/gcc/../../avr/include/util/delay_basic.h" 1
 5692 23fe 0197      		1: sbiw r24,1
 5693 2400 01F4      		brne 1b
 5694               	 ;  0 "" 2
 5695               	/* #NOAPP */
 5696               	.LBE349:
 5697               	.LBE348:
 5698               	.LBE347:
 5699               	.LBE346:
 5700               	.LBE345:
 5701               	.LBE344:
 5702               	.LM686:
 5703 2402 2F5F      		subi r18,lo8(-(1))
 5704 2404 3F4F      		sbci r19,hi8(-(1))
 5705               	.LM687:
 5706 2406 AB9A      		sbi 53-32,3
 5707               	.LM688:
 5708 2408 8FE0      		ldi r24,hi8(4000)
 5709 240a 203A      		cpi r18,lo8(4000)
 5710 240c 3807      		cpc r19,r24
 5711               	.LVL183:
 5712 240e 01F4      		brne .L409
 5713               	.LM689:
 5714 2410 AB98      		cbi 53-32,3
 5715               	.LM690:
 5716 2412 CE9B      		sbis 57-32,6
 5717 2414 00C0      		rjmp .L410
 5718 2416 CF9B      		sbis 57-32,7
 5719 2418 00C0      		rjmp .L410
 5720               	.LM691:
 5721 241a 81E0      		ldi r24,lo8(1)
 5722 241c 8093 0000 		sts rec,r24
 5723               	.LM692:
 5724 2420 81E0      		ldi r24,lo8(1)
 5725 2422 90E0      		ldi r25,hi8(1)
 5726 2424 9093 0000 		sts (flag)+1,r25
 5727 2428 8093 0000 		sts flag,r24
 5728 242c 00C0      		rjmp .L411
 5729               	.L410:
 5730               	.LM693:
 5731 242e 82E0      		ldi r24,lo8(2)
 5732 2430 8093 0000 		sts rec,r24
 5733               	.L411:
 5734               	.LM694:
 5735 2434 0E94 0000 		call inch
 5736               	.LVL184:
 5737               	.LM695:
 5738 2438 8091 0000 		lds r24,rec
 5739 243c 90E0      		ldi r25,lo8(0)
 5740 243e 0E94 0000 		call place_obj
 5741               	.LM696:
 5742 2442 85E5      		ldi r24,lo8(85)
 5743 2444 0E94 0000 		call turn
 5744               	.LM697:
 5745 2448 0E94 0000 		call inchb
 5746               	.LM698:
 5747 244c 0E94 0000 		call inchb
 5748               	.LM699:
 5749 2450 0E94 0000 		call inchb
 5750               	.LM700:
 5751 2454 8EE4      		ldi r24,lo8(78)
 5752 2456 0E94 0000 		call turn
 5753               	.L441:
 5754               	.LM701:
 5755 245a CE9B      		sbis 57-32,6
 5756 245c 00C0      		rjmp .L412
 5757 245e CF9B      		sbis 57-32,7
 5758 2460 00C0      		rjmp .L412
 5759               	.LM702:
 5760 2462 8091 0000 		lds r24,flag
 5761 2466 9091 0000 		lds r25,(flag)+1
 5762 246a 892B      		or r24,r25
 5763 246c 01F4      		brne .L413
 5764               	.LM703:
 5765 246e 81E0      		ldi r24,lo8(1)
 5766 2470 00C0      		rjmp .L444
 5767               	.L413:
 5768               	.LM704:
 5769 2472 83E0      		ldi r24,lo8(3)
 5770 2474 00C0      		rjmp .L444
 5771               	.L412:
 5772               	.LM705:
 5773 2476 CE99      		sbic 57-32,6
 5774 2478 00C0      		rjmp .L415
 5775 247a CF99      		sbic 57-32,7
 5776 247c 00C0      		rjmp .L448
 5777               	.L415:
 5778               	.LM706:
 5779 247e CE9B      		sbis 57-32,6
 5780 2480 00C0      		rjmp .L441
 5781 2482 CF99      		sbic 57-32,7
 5782 2484 00C0      		rjmp .L441
 5783               	.L448:
 5784               	.LM707:
 5785 2486 82E0      		ldi r24,lo8(2)
 5786               	.L444:
 5787 2488 8093 0000 		sts rec,r24
 5788               	.LM708:
 5789 248c 0E94 0000 		call inch
 5790 2490 20E0      		ldi r18,lo8(0)
 5791 2492 30E0      		ldi r19,hi8(0)
 5792               	.LVL185:
 5793               	.LBB350:
 5794               	.LBB351:
 5795               	.LBB352:
 5796               	.LBB353:
 5797               	.LBB354:
 5798               	.LBB355:
 5799               	.LM709:
 5800 2494 48EC      		ldi r20,lo8(200)
 5801 2496 50E0      		ldi r21,hi8(200)
 5802               	.L417:
 5803               	.LBE355:
 5804               	.LBE354:
 5805               	.LBE353:
 5806               	.LBE352:
 5807               	.LBE351:
 5808               	.LBE350:
 5809               	.LM710:
 5810 2498 C09A      		sbi 56-32,0
 5811               	.LM711:
 5812 249a C198      		cbi 56-32,1
 5813               	.LBB361:
 5814               	.LBB360:
 5815               	.LBB359:
 5816               	.LBB358:
 5817               	.LBB357:
 5818               	.LBB356:
 5819               	.LM712:
 5820 249c CA01      		movw r24,r20
 5821               	.LVL186:
 5822               	/* #APP */
 5823               	 ;  105 "c:/winavr-20100110/lib/gcc/../../avr/include/util/delay_basic.h" 1
 5824 249e 0197      		1: sbiw r24,1
 5825 24a0 01F4      		brne 1b
 5826               	 ;  0 "" 2
 5827               	/* #NOAPP */
 5828               	.LBE356:
 5829               	.LBE357:
 5830               	.LBE358:
 5831               	.LBE359:
 5832               	.LBE360:
 5833               	.LBE361:
 5834               	.LM713:
 5835 24a2 C09A      		sbi 56-32,0
 5836               	.LM714:
 5837 24a4 C19A      		sbi 56-32,1
 5838               	.LBB362:
 5839               	.LBB363:
 5840               	.LBB364:
 5841               	.LBB365:
 5842               	.LBB366:
 5843               	.LBB367:
 5844               	.LM715:
 5845 24a6 CA01      		movw r24,r20
 5846               	.LVL187:
 5847               	/* #APP */
 5848               	 ;  105 "c:/winavr-20100110/lib/gcc/../../avr/include/util/delay_basic.h" 1
 5849 24a8 0197      		1: sbiw r24,1
 5850 24aa 01F4      		brne 1b
 5851               	 ;  0 "" 2
 5852               	/* #NOAPP */
 5853               	.LBE367:
 5854               	.LBE366:
 5855               	.LBE365:
 5856               	.LBE364:
 5857               	.LBE363:
 5858               	.LBE362:
 5859               	.LM716:
 5860 24ac 2F5F      		subi r18,lo8(-(1))
 5861 24ae 3F4F      		sbci r19,hi8(-(1))
 5862               	.LM717:
 5863 24b0 AB9A      		sbi 53-32,3
 5864               	.LM718:
 5865 24b2 8FE0      		ldi r24,hi8(4000)
 5866 24b4 203A      		cpi r18,lo8(4000)
 5867 24b6 3807      		cpc r19,r24
 5868               	.LVL188:
 5869 24b8 01F4      		brne .L417
 5870               	.LM719:
 5871 24ba AB98      		cbi 53-32,3
 5872               	.LM720:
 5873 24bc CE9B      		sbis 57-32,6
 5874 24be 00C0      		rjmp .L418
 5875 24c0 CF9B      		sbis 57-32,7
 5876 24c2 00C0      		rjmp .L418
 5877               	.LM721:
 5878 24c4 8091 0000 		lds r24,flag
 5879 24c8 9091 0000 		lds r25,(flag)+1
 5880 24cc 0197      		sbiw r24,1
 5881 24ce 01F4      		brne .L419
 5882               	.LM722:
 5883 24d0 83E0      		ldi r24,lo8(3)
 5884 24d2 00C0      		rjmp .L445
 5885               	.L419:
 5886               	.LM723:
 5887 24d4 81E0      		ldi r24,lo8(1)
 5888 24d6 90E0      		ldi r25,hi8(1)
 5889 24d8 9093 0000 		sts (flag)+1,r25
 5890 24dc 8093 0000 		sts flag,r24
 5891               	.LM724:
 5892 24e0 81E0      		ldi r24,lo8(1)
 5893 24e2 00C0      		rjmp .L445
 5894               	.L418:
 5895               	.LM725:
 5896 24e4 82E0      		ldi r24,lo8(2)
 5897               	.L445:
 5898 24e6 8093 0000 		sts rec,r24
 5899               	.LM726:
 5900 24ea 8EE4      		ldi r24,lo8(78)
 5901 24ec 0E94 0000 		call turn
 5902               	.LVL189:
 5903               	.LM727:
 5904 24f0 0E94 0000 		call linefollower
 5905               	.LM728:
 5906 24f4 8EE4      		ldi r24,lo8(78)
 5907 24f6 0E94 0000 		call turn
 5908               	.LM729:
 5909 24fa 0E94 0000 		call inch
 5910               	.LM730:
 5911 24fe 8091 0000 		lds r24,rec
 5912 2502 90E0      		ldi r25,lo8(0)
 5913 2504 0E94 0000 		call place_obj
 5914               	.LM731:
 5915 2508 85E5      		ldi r24,lo8(85)
 5916 250a 0E94 0000 		call turn
 5917               	.LM732:
 5918 250e 0E94 0000 		call inchb
 5919               	.LM733:
 5920 2512 0E94 0000 		call inchb
 5921               	.LM734:
 5922 2516 0E94 0000 		call inchb
 5923               	.LM735:
 5924 251a 8EE4      		ldi r24,lo8(78)
 5925 251c 0E94 0000 		call turn
 5926               	.L442:
 5927               	.LM736:
 5928 2520 CE9B      		sbis 57-32,6
 5929 2522 00C0      		rjmp .L421
 5930 2524 CF9B      		sbis 57-32,7
 5931 2526 00C0      		rjmp .L421
 5932               	.LM737:
 5933 2528 8091 0000 		lds r24,flag
 5934 252c 9091 0000 		lds r25,(flag)+1
 5935 2530 892B      		or r24,r25
 5936 2532 01F4      		brne .L422
 5937               	.LM738:
 5938 2534 81E0      		ldi r24,lo8(1)
 5939 2536 00C0      		rjmp .L446
 5940               	.L422:
 5941               	.LM739:
 5942 2538 83E0      		ldi r24,lo8(3)
 5943 253a 00C0      		rjmp .L446
 5944               	.L421:
 5945               	.LM740:
 5946 253c CE99      		sbic 57-32,6
 5947 253e 00C0      		rjmp .L424
 5948 2540 CF99      		sbic 57-32,7
 5949 2542 00C0      		rjmp .L449
 5950               	.L424:
 5951               	.LM741:
 5952 2544 CE9B      		sbis 57-32,6
 5953 2546 00C0      		rjmp .L442
 5954 2548 CF99      		sbic 57-32,7
 5955 254a 00C0      		rjmp .L442
 5956               	.L449:
 5957               	.LM742:
 5958 254c 82E0      		ldi r24,lo8(2)
 5959               	.L446:
 5960 254e 8093 0000 		sts rec,r24
 5961               	.LM743:
 5962 2552 0E94 0000 		call inch
 5963 2556 20E0      		ldi r18,lo8(0)
 5964 2558 30E0      		ldi r19,hi8(0)
 5965               	.LVL190:
 5966               	.LBB368:
 5967               	.LBB369:
 5968               	.LBB370:
 5969               	.LBB371:
 5970               	.LBB372:
 5971               	.LBB373:
 5972               	.LM744:
 5973 255a 48EC      		ldi r20,lo8(200)
 5974 255c 50E0      		ldi r21,hi8(200)
 5975               	.L426:
 5976               	.LBE373:
 5977               	.LBE372:
 5978               	.LBE371:
 5979               	.LBE370:
 5980               	.LBE369:
 5981               	.LBE368:
 5982               	.LM745:
 5983 255e C09A      		sbi 56-32,0
 5984               	.LM746:
 5985 2560 C198      		cbi 56-32,1
 5986               	.LBB379:
 5987               	.LBB378:
 5988               	.LBB377:
 5989               	.LBB376:
 5990               	.LBB375:
 5991               	.LBB374:
 5992               	.LM747:
 5993 2562 CA01      		movw r24,r20
 5994               	.LVL191:
 5995               	/* #APP */
 5996               	 ;  105 "c:/winavr-20100110/lib/gcc/../../avr/include/util/delay_basic.h" 1
 5997 2564 0197      		1: sbiw r24,1
 5998 2566 01F4      		brne 1b
 5999               	 ;  0 "" 2
 6000               	/* #NOAPP */
 6001               	.LBE374:
 6002               	.LBE375:
 6003               	.LBE376:
 6004               	.LBE377:
 6005               	.LBE378:
 6006               	.LBE379:
 6007               	.LM748:
 6008 2568 C09A      		sbi 56-32,0
 6009               	.LM749:
 6010 256a C19A      		sbi 56-32,1
 6011               	.LBB380:
 6012               	.LBB381:
 6013               	.LBB382:
 6014               	.LBB383:
 6015               	.LBB384:
 6016               	.LBB385:
 6017               	.LM750:
 6018 256c CA01      		movw r24,r20
 6019               	.LVL192:
 6020               	/* #APP */
 6021               	 ;  105 "c:/winavr-20100110/lib/gcc/../../avr/include/util/delay_basic.h" 1
 6022 256e 0197      		1: sbiw r24,1
 6023 2570 01F4      		brne 1b
 6024               	 ;  0 "" 2
 6025               	/* #NOAPP */
 6026               	.LBE385:
 6027               	.LBE384:
 6028               	.LBE383:
 6029               	.LBE382:
 6030               	.LBE381:
 6031               	.LBE380:
 6032               	.LM751:
 6033 2572 2F5F      		subi r18,lo8(-(1))
 6034 2574 3F4F      		sbci r19,hi8(-(1))
 6035               	.LM752:
 6036 2576 AB9A      		sbi 53-32,3
 6037               	.LM753:
 6038 2578 8FE0      		ldi r24,hi8(4000)
 6039 257a 203A      		cpi r18,lo8(4000)
 6040 257c 3807      		cpc r19,r24
 6041               	.LVL193:
 6042 257e 01F4      		brne .L426
 6043               	.LM754:
 6044 2580 AB98      		cbi 53-32,3
 6045               	.LM755:
 6046 2582 CE9B      		sbis 57-32,6
 6047 2584 00C0      		rjmp .L427
 6048 2586 CF9B      		sbis 57-32,7
 6049 2588 00C0      		rjmp .L427
 6050               	.LM756:
 6051 258a 8091 0000 		lds r24,flag
 6052 258e 9091 0000 		lds r25,(flag)+1
 6053 2592 0197      		sbiw r24,1
 6054 2594 01F4      		brne .L428
 6055               	.LM757:
 6056 2596 83E0      		ldi r24,lo8(3)
 6057 2598 00C0      		rjmp .L447
 6058               	.L428:
 6059               	.LM758:
 6060 259a 81E0      		ldi r24,lo8(1)
 6061 259c 90E0      		ldi r25,hi8(1)
 6062 259e 9093 0000 		sts (flag)+1,r25
 6063 25a2 8093 0000 		sts flag,r24
 6064               	.LM759:
 6065 25a6 81E0      		ldi r24,lo8(1)
 6066 25a8 00C0      		rjmp .L447
 6067               	.L427:
 6068               	.LM760:
 6069 25aa 82E0      		ldi r24,lo8(2)
 6070               	.L447:
 6071 25ac 8093 0000 		sts rec,r24
 6072               	.LM761:
 6073 25b0 8EE4      		ldi r24,lo8(78)
 6074 25b2 0E94 0000 		call turn
 6075               	.LVL194:
 6076               	.LM762:
 6077 25b6 0E94 0000 		call linefollower
 6078               	.LM763:
 6079 25ba 8EE4      		ldi r24,lo8(78)
 6080 25bc 0E94 0000 		call turn
 6081               	.LM764:
 6082 25c0 0E94 0000 		call inch
 6083               	.LM765:
 6084 25c4 8091 0000 		lds r24,rec
 6085 25c8 90E0      		ldi r25,lo8(0)
 6086 25ca 0E94 0000 		call place_obj
 6087               	.LM766:
 6088 25ce 85E5      		ldi r24,lo8(85)
 6089 25d0 0E94 0000 		call turn
 6090               	.LM767:
 6091 25d4 0E94 0000 		call inchb
 6092               	.LM768:
 6093 25d8 0E94 0000 		call inchb
 6094               	.LM769:
 6095 25dc 0E94 0000 		call inchb
 6096               	.LM770:
 6097 25e0 8EE4      		ldi r24,lo8(78)
 6098 25e2 0E94 0000 		call turn
 6099               	/* epilogue start */
 6100               	.LM771:
 6101 25e6 0895      		ret
 6102               	.LFE36:
 6104               	.global	linefollower
 6106               	linefollower:
 6107               	.LFB26:
 6108               	.LM772:
 6109 25e8 EF92      		push r14
 6110 25ea FF92      		push r15
 6111 25ec 0F93      		push r16
 6112 25ee 1F93      		push r17
 6113 25f0 CF93      		push r28
 6114 25f2 DF93      		push r29
 6115               	/* prologue: function */
 6116               	/* frame size = 0 */
 6117               	.LBB386:
 6118               	.LBB387:
 6119               	.LBB388:
 6120               	.LBB389:
 6121               	.LM773:
 6122 25f4 2AE1      		ldi r18,lo8(26)
 6123 25f6 E22E      		mov r14,r18
 6124               	.LBE389:
 6125               	.LBE388:
 6126               	.LBE387:
 6127               	.LBE386:
 6128               	.LBB393:
 6129               	.LBB394:
 6130               	.LBB395:
 6131               	.LBB396:
 6132               	.LBB397:
 6133               	.LBB398:
 6134               	.LM774:
 6135 25f8 0CE7      		ldi r16,lo8(380)
 6136 25fa 11E0      		ldi r17,hi8(380)
 6137               	.LBE398:
 6138               	.LBE397:
 6139               	.LBE396:
 6140               	.LBE395:
 6141               	.LBE394:
 6142               	.LBE393:
 6143               	.LBB404:
 6144               	.LBB405:
 6145               	.LBB406:
 6146               	.LBB407:
 6147               	.LM775:
 6148 25fc 90E5      		ldi r25,lo8(80)
 6149 25fe F92E      		mov r15,r25
 6150               	.LBE407:
 6151               	.LBE406:
 6152               	.LBE405:
 6153               	.LBE404:
 6154               	.LBB411:
 6155               	.LBB412:
 6156               	.LBB413:
 6157               	.LBB414:
 6158               	.LBB415:
 6159               	.LBB416:
 6160               	.LM776:
 6161 2600 C4E5      		ldi r28,lo8(340)
 6162 2602 D1E0      		ldi r29,hi8(340)
 6163               	.LVL195:
 6164               	.L480:
 6165               	.LBE416:
 6166               	.LBE415:
 6167               	.LBE414:
 6168               	.LBE413:
 6169               	.LBE412:
 6170               	.LBE411:
 6171               	.LM777:
 6172 2604 B599      		sbic 54-32,5
 6173 2606 00C0      		rjmp .L451
 6174               	.LM778:
 6175 2608 8EE4      		ldi r24,lo8(78)
 6176               	.LVL196:
 6177 260a 0E94 0000 		call turn
 6178               	.L452:
 6179               	.LM779:
 6180 260e B599      		sbic 54-32,5
 6181 2610 00C0      		rjmp .L452
 6182               	.L476:
 6183               	.LM780:
 6184 2612 B59B      		sbis 54-32,5
 6185 2614 00C0      		rjmp .L476
 6186               	.LM781:
 6187 2616 0E94 0000 		call final_show
 6188               	.LVL197:
 6189               	.L451:
 6190               	.LM782:
 6191 261a C999      		sbic 57-32,1
 6192 261c 00C0      		rjmp .L454
 6193 261e CA99      		sbic 57-32,2
 6194 2620 00C0      		rjmp .L454
 6195 2622 CB9B      		sbis 57-32,3
 6196 2624 00C0      		rjmp .L454
 6197 2626 CC99      		sbic 57-32,4
 6198 2628 00C0      		rjmp .L454
 6199 262a CD99      		sbic 57-32,5
 6200 262c 00C0      		rjmp .L454
 6201               	.LM783:
 6202 262e 959A      		sbi 50-32,5
 6203               	.LM784:
 6204 2630 979A      		sbi 50-32,7
 6205               	.LBB422:
 6206               	.LBB392:
 6207               	.LBB391:
 6208               	.LBB390:
 6209               	.LM785:
 6210 2632 8E2D      		mov r24,r14
 6211               	.LVL198:
 6212               	/* #APP */
 6213               	 ;  83 "c:/winavr-20100110/lib/gcc/../../avr/include/util/delay_basic.h" 1
 6214 2634 8A95      		1: dec r24
 6215 2636 01F4      		brne 1b
 6216               	 ;  0 "" 2
 6217               	/* #NOAPP */
 6218               	.LBE390:
 6219               	.LBE391:
 6220               	.LBE392:
 6221               	.LBE422:
 6222               	.LM786:
 6223 2638 949A      		sbi 50-32,4
 6224               	.LM787:
 6225 263a 9598      		cbi 50-32,5
 6226               	.LM788:
 6227 263c 969A      		sbi 50-32,6
 6228               	.LM789:
 6229 263e 9798      		cbi 50-32,7
 6230               	.LBB423:
 6231               	.LBB403:
 6232               	.LBB402:
 6233               	.LBB401:
 6234               	.LBB400:
 6235               	.LBB399:
 6236               	.LM790:
 6237 2640 C801      		movw r24,r16
 6238               	.LVL199:
 6239               	/* #APP */
 6240               	 ;  105 "c:/winavr-20100110/lib/gcc/../../avr/include/util/delay_basic.h" 1
 6241 2642 0197      		1: sbiw r24,1
 6242 2644 01F4      		brne 1b
 6243               	 ;  0 "" 2
 6244               	.LVL200:
 6245               	/* #NOAPP */
 6246               	.L454:
 6247               	.LBE399:
 6248               	.LBE400:
 6249               	.LBE401:
 6250               	.LBE402:
 6251               	.LBE403:
 6252               	.LBE423:
 6253               	.LM791:
 6254 2646 CA9B      		sbis 57-32,2
 6255 2648 00C0      		rjmp .L455
 6256 264a CB9B      		sbis 57-32,3
 6257 264c 00C0      		rjmp .L455
 6258 264e CC9B      		sbis 57-32,4
 6259 2650 00C0      		rjmp .L455
 6260               	.LM792:
 6261 2652 959A      		sbi 50-32,5
 6262               	.LM793:
 6263 2654 979A      		sbi 50-32,7
 6264               	.LBB424:
 6265               	.LBB425:
 6266               	.LBB426:
 6267               	.LBB427:
 6268               	.LM794:
 6269 2656 8E2D      		mov r24,r14
 6270               	.LVL201:
 6271               	/* #APP */
 6272               	 ;  83 "c:/winavr-20100110/lib/gcc/../../avr/include/util/delay_basic.h" 1
 6273 2658 8A95      		1: dec r24
 6274 265a 01F4      		brne 1b
 6275               	 ;  0 "" 2
 6276               	/* #NOAPP */
 6277               	.LBE427:
 6278               	.LBE426:
 6279               	.LBE425:
 6280               	.LBE424:
 6281               	.LM795:
 6282 265c 949A      		sbi 50-32,4
 6283               	.LM796:
 6284 265e 9598      		cbi 50-32,5
 6285               	.LM797:
 6286 2660 969A      		sbi 50-32,6
 6287               	.LM798:
 6288 2662 9798      		cbi 50-32,7
 6289               	.LBB428:
 6290               	.LBB429:
 6291               	.LBB430:
 6292               	.LBB431:
 6293               	.LBB432:
 6294               	.LBB433:
 6295               	.LM799:
 6296 2664 C801      		movw r24,r16
 6297               	.LVL202:
 6298               	/* #APP */
 6299               	 ;  105 "c:/winavr-20100110/lib/gcc/../../avr/include/util/delay_basic.h" 1
 6300 2666 0197      		1: sbiw r24,1
 6301 2668 01F4      		brne 1b
 6302               	 ;  0 "" 2
 6303               	.LVL203:
 6304               	/* #NOAPP */
 6305               	.L455:
 6306               	.LBE433:
 6307               	.LBE432:
 6308               	.LBE431:
 6309               	.LBE430:
 6310               	.LBE429:
 6311               	.LBE428:
 6312               	.LM800:
 6313 266a CA9B      		sbis 57-32,2
 6314 266c 00C0      		rjmp .L456
 6315 266e CB9B      		sbis 57-32,3
 6316 2670 00C0      		rjmp .L456
 6317 2672 CC99      		sbic 57-32,4
 6318 2674 00C0      		rjmp .L456
 6319               	.LM801:
 6320 2676 969A      		sbi 50-32,6
 6321               	.LM802:
 6322 2678 9798      		cbi 50-32,7
 6323               	.LM803:
 6324 267a 949A      		sbi 50-32,4
 6325               	.LM804:
 6326 267c 959A      		sbi 50-32,5
 6327               	.LBB434:
 6328               	.LBB410:
 6329               	.LBB409:
 6330               	.LBB408:
 6331               	.LM805:
 6332 267e 8F2D      		mov r24,r15
 6333               	.LVL204:
 6334               	/* #APP */
 6335               	 ;  83 "c:/winavr-20100110/lib/gcc/../../avr/include/util/delay_basic.h" 1
 6336 2680 8A95      		1: dec r24
 6337 2682 01F4      		brne 1b
 6338               	 ;  0 "" 2
 6339               	/* #NOAPP */
 6340               	.LBE408:
 6341               	.LBE409:
 6342               	.LBE410:
 6343               	.LBE434:
 6344               	.LM806:
 6345 2684 9598      		cbi 50-32,5
 6346               	.LBB435:
 6347               	.LBB421:
 6348               	.LBB420:
 6349               	.LBB419:
 6350               	.LBB418:
 6351               	.LBB417:
 6352               	.LM807:
 6353 2686 CE01      		movw r24,r28
 6354               	.LVL205:
 6355               	/* #APP */
 6356               	 ;  105 "c:/winavr-20100110/lib/gcc/../../avr/include/util/delay_basic.h" 1
 6357 2688 0197      		1: sbiw r24,1
 6358 268a 01F4      		brne 1b
 6359               	 ;  0 "" 2
 6360               	.LVL206:
 6361               	/* #NOAPP */
 6362               	.L456:
 6363               	.LBE417:
 6364               	.LBE418:
 6365               	.LBE419:
 6366               	.LBE420:
 6367               	.LBE421:
 6368               	.LBE435:
 6369               	.LM808:
 6370 268c CA99      		sbic 57-32,2
 6371 268e 00C0      		rjmp .L457
 6372 2690 CB9B      		sbis 57-32,3
 6373 2692 00C0      		rjmp .L457
 6374 2694 CC9B      		sbis 57-32,4
 6375 2696 00C0      		rjmp .L457
 6376               	.LM809:
 6377 2698 949A      		sbi 50-32,4
 6378               	.LM810:
 6379 269a 9598      		cbi 50-32,5
 6380               	.LM811:
 6381 269c 969A      		sbi 50-32,6
 6382               	.LM812:
 6383 269e 979A      		sbi 50-32,7
 6384               	.LBB436:
 6385               	.LBB437:
 6386               	.LBB438:
 6387               	.LBB439:
 6388               	.LM813:
 6389 26a0 8F2D      		mov r24,r15
 6390               	.LVL207:
 6391               	/* #APP */
 6392               	 ;  83 "c:/winavr-20100110/lib/gcc/../../avr/include/util/delay_basic.h" 1
 6393 26a2 8A95      		1: dec r24
 6394 26a4 01F4      		brne 1b
 6395               	 ;  0 "" 2
 6396               	/* #NOAPP */
 6397               	.LBE439:
 6398               	.LBE438:
 6399               	.LBE437:
 6400               	.LBE436:
 6401               	.LM814:
 6402 26a6 9798      		cbi 50-32,7
 6403               	.LBB440:
 6404               	.LBB441:
 6405               	.LBB442:
 6406               	.LBB443:
 6407               	.LBB444:
 6408               	.LBB445:
 6409               	.LM815:
 6410 26a8 CE01      		movw r24,r28
 6411               	.LVL208:
 6412               	/* #APP */
 6413               	 ;  105 "c:/winavr-20100110/lib/gcc/../../avr/include/util/delay_basic.h" 1
 6414 26aa 0197      		1: sbiw r24,1
 6415 26ac 01F4      		brne 1b
 6416               	 ;  0 "" 2
 6417               	.LVL209:
 6418               	/* #NOAPP */
 6419               	.L457:
 6420               	.LBE445:
 6421               	.LBE444:
 6422               	.LBE443:
 6423               	.LBE442:
 6424               	.LBE441:
 6425               	.LBE440:
 6426               	.LM816:
 6427 26ae CA99      		sbic 57-32,2
 6428 26b0 00C0      		rjmp .L458
 6429 26b2 CB99      		sbic 57-32,3
 6430 26b4 00C0      		rjmp .L458
 6431 26b6 CC9B      		sbis 57-32,4
 6432 26b8 00C0      		rjmp .L458
 6433               	.LM817:
 6434 26ba 949A      		sbi 50-32,4
 6435               	.LM818:
 6436 26bc 9598      		cbi 50-32,5
 6437               	.LM819:
 6438 26be 969A      		sbi 50-32,6
 6439               	.LM820:
 6440 26c0 979A      		sbi 50-32,7
 6441               	.L458:
 6442               	.LM821:
 6443 26c2 CA9B      		sbis 57-32,2
 6444 26c4 00C0      		rjmp .L459
 6445 26c6 CB99      		sbic 57-32,3
 6446 26c8 00C0      		rjmp .L459
 6447 26ca CC99      		sbic 57-32,4
 6448 26cc 00C0      		rjmp .L459
 6449               	.LM822:
 6450 26ce 969A      		sbi 50-32,6
 6451               	.LM823:
 6452 26d0 9798      		cbi 50-32,7
 6453               	.LM824:
 6454 26d2 949A      		sbi 50-32,4
 6455               	.LM825:
 6456 26d4 959A      		sbi 50-32,5
 6457               	.L459:
 6458               	.LM826:
 6459 26d6 C99B      		sbis 57-32,1
 6460 26d8 00C0      		rjmp .L460
 6461 26da CA99      		sbic 57-32,2
 6462 26dc 00C0      		rjmp .L460
 6463 26de CB99      		sbic 57-32,3
 6464 26e0 00C0      		rjmp .L460
 6465 26e2 CC99      		sbic 57-32,4
 6466 26e4 00C0      		rjmp .L460
 6467 26e6 CD99      		sbic 57-32,5
 6468 26e8 00C0      		rjmp .L460
 6469               	.LM827:
 6470 26ea 969A      		sbi 50-32,6
 6471               	.LM828:
 6472 26ec 9798      		cbi 50-32,7
 6473               	.LM829:
 6474 26ee 9498      		cbi 50-32,4
 6475               	.LM830:
 6476 26f0 959A      		sbi 50-32,5
 6477               	.L460:
 6478               	.LM831:
 6479 26f2 C999      		sbic 57-32,1
 6480 26f4 00C0      		rjmp .L461
 6481 26f6 CA99      		sbic 57-32,2
 6482 26f8 00C0      		rjmp .L461
 6483 26fa CB99      		sbic 57-32,3
 6484 26fc 00C0      		rjmp .L461
 6485 26fe CC99      		sbic 57-32,4
 6486 2700 00C0      		rjmp .L461
 6487 2702 CD9B      		sbis 57-32,5
 6488 2704 00C0      		rjmp .L461
 6489               	.LM832:
 6490 2706 949A      		sbi 50-32,4
 6491               	.LM833:
 6492 2708 9598      		cbi 50-32,5
 6493               	.LM834:
 6494 270a 9698      		cbi 50-32,6
 6495               	.LM835:
 6496 270c 979A      		sbi 50-32,7
 6497               	.L461:
 6498               	.LM836:
 6499 270e C99B      		sbis 57-32,1
 6500 2710 00C0      		rjmp .L462
 6501 2712 CD99      		sbic 57-32,5
 6502 2714 00C0      		rjmp .L463
 6503               	.L462:
 6504               	.LM837:
 6505 2716 1092 0000 		sts (f2)+1,__zero_reg__
 6506 271a 1092 0000 		sts f2,__zero_reg__
 6507               	.L463:
 6508               	.LM838:
 6509 271e C99B      		sbis 57-32,1
 6510 2720 00C0      		rjmp .L464
 6511 2722 CA9B      		sbis 57-32,2
 6512 2724 00C0      		rjmp .L464
 6513 2726 CB9B      		sbis 57-32,3
 6514 2728 00C0      		rjmp .L464
 6515 272a CC9B      		sbis 57-32,4
 6516 272c 00C0      		rjmp .L464
 6517 272e CD99      		sbic 57-32,5
 6518 2730 00C0      		rjmp .L474
 6519               	.L464:
 6520               	.LM839:
 6521 2732 C99B      		sbis 57-32,1
 6522 2734 00C0      		rjmp .L466
 6523 2736 CA99      		sbic 57-32,2
 6524 2738 00C0      		rjmp .L466
 6525 273a CB99      		sbic 57-32,3
 6526 273c 00C0      		rjmp .L466
 6527 273e CC99      		sbic 57-32,4
 6528 2740 00C0      		rjmp .L466
 6529 2742 CD99      		sbic 57-32,5
 6530 2744 00C0      		rjmp .L481
 6531               	.L466:
 6532               	.LM840:
 6533 2746 C99B      		sbis 57-32,1
 6534 2748 00C0      		rjmp .L467
 6535 274a CA9B      		sbis 57-32,2
 6536 274c 00C0      		rjmp .L467
 6537 274e CB9B      		sbis 57-32,3
 6538 2750 00C0      		rjmp .L467
 6539 2752 CC99      		sbic 57-32,4
 6540 2754 00C0      		rjmp .L467
 6541 2756 CD99      		sbic 57-32,5
 6542 2758 00C0      		rjmp .L481
 6543               	.L467:
 6544               	.LM841:
 6545 275a C99B      		sbis 57-32,1
 6546 275c 00C0      		rjmp .L468
 6547 275e CA99      		sbic 57-32,2
 6548 2760 00C0      		rjmp .L468
 6549 2762 CB9B      		sbis 57-32,3
 6550 2764 00C0      		rjmp .L468
 6551 2766 CC9B      		sbis 57-32,4
 6552 2768 00C0      		rjmp .L468
 6553 276a CD99      		sbic 57-32,5
 6554 276c 00C0      		rjmp .L481
 6555               	.L468:
 6556               	.LM842:
 6557 276e C99B      		sbis 57-32,1
 6558 2770 00C0      		rjmp .L469
 6559 2772 CA9B      		sbis 57-32,2
 6560 2774 00C0      		rjmp .L469
 6561 2776 CB99      		sbic 57-32,3
 6562 2778 00C0      		rjmp .L469
 6563 277a CC99      		sbic 57-32,4
 6564 277c 00C0      		rjmp .L469
 6565 277e CD99      		sbic 57-32,5
 6566 2780 00C0      		rjmp .L481
 6567               	.L469:
 6568               	.LM843:
 6569 2782 C99B      		sbis 57-32,1
 6570 2784 00C0      		rjmp .L470
 6571 2786 CA99      		sbic 57-32,2
 6572 2788 00C0      		rjmp .L470
 6573 278a CB99      		sbic 57-32,3
 6574 278c 00C0      		rjmp .L470
 6575 278e CC9B      		sbis 57-32,4
 6576 2790 00C0      		rjmp .L470
 6577 2792 CD99      		sbic 57-32,5
 6578 2794 00C0      		rjmp .L481
 6579               	.L470:
 6580               	.LM844:
 6581 2796 C99B      		sbis 57-32,1
 6582 2798 00C0      		rjmp .L471
 6583 279a CA9B      		sbis 57-32,2
 6584 279c 00C0      		rjmp .L471
 6585 279e CB99      		sbic 57-32,3
 6586 27a0 00C0      		rjmp .L471
 6587 27a2 CC9B      		sbis 57-32,4
 6588 27a4 00C0      		rjmp .L471
 6589 27a6 CD9B      		sbis 57-32,5
 6590 27a8 00C0      		rjmp .L471
 6591               	.L481:
 6592               	.LM845:
 6593 27aa 81E0      		ldi r24,lo8(1)
 6594 27ac 90E0      		ldi r25,hi8(1)
 6595               	.LVL210:
 6596 27ae 9093 0000 		sts (nodeflag)+1,r25
 6597 27b2 8093 0000 		sts nodeflag,r24
 6598 27b6 00C0      		rjmp .L474
 6599               	.LVL211:
 6600               	.L471:
 6601               	.LM846:
 6602 27b8 CB9B      		sbis 57-32,3
 6603 27ba 00C0      		rjmp .L472
 6604               	.LM847:
 6605 27bc 1092 0000 		sts (nodeflag)+1,__zero_reg__
 6606 27c0 1092 0000 		sts nodeflag,__zero_reg__
 6607               	.L472:
 6608               	.LM848:
 6609 27c4 C999      		sbic 57-32,1
 6610 27c6 00C0      		rjmp .L480
 6611 27c8 CA99      		sbic 57-32,2
 6612 27ca 00C0      		rjmp .L480
 6613 27cc CB99      		sbic 57-32,3
 6614 27ce 00C0      		rjmp .L480
 6615 27d0 CC99      		sbic 57-32,4
 6616 27d2 00C0      		rjmp .L480
 6617 27d4 89B3      		in r24,57-32
 6618               	.LVL212:
 6619 27d6 00C0      		rjmp .L480
 6620               	.LVL213:
 6621               	.L474:
 6622               	/* epilogue start */
 6623               	.LM849:
 6624 27d8 DF91      		pop r29
 6625 27da CF91      		pop r28
 6626 27dc 1F91      		pop r17
 6627 27de 0F91      		pop r16
 6628 27e0 FF90      		pop r15
 6629 27e2 EF90      		pop r14
 6630 27e4 0895      		ret
 6631               	.LFE26:
 6633               	.global	place_obj
 6635               	place_obj:
 6636               	.LFB35:
 6637               	.LM850:
 6638               	.LVL214:
 6639 27e6 0F93      		push r16
 6640 27e8 1F93      		push r17
 6641 27ea CF93      		push r28
 6642 27ec DF93      		push r29
 6643               	/* prologue: function */
 6644               	/* frame size = 0 */
 6645               	.LM851:
 6646 27ee 8230      		cpi r24,2
 6647 27f0 9105      		cpc r25,__zero_reg__
 6648 27f2 01F0      		breq .+2
 6649 27f4 00C0      		rjmp .L483
 6650 27f6 C0E0      		ldi r28,lo8(0)
 6651 27f8 D0E0      		ldi r29,hi8(0)
 6652               	.LVL215:
 6653               	.LM852:
 6654 27fa 02E0      		ldi r16,lo8(2)
 6655               	.LVL216:
 6656               	.L485:
 6657               	.LM853:
 6658 27fc FE01      		movw r30,r28
 6659 27fe E050      		subi r30,lo8(-(path_centre))
 6660 2800 F040      		sbci r31,hi8(-(path_centre))
 6661 2802 1081      		ld r17,Z
 6662               	.LM854:
 6663 2804 0E94 0000 		call inch
 6664               	.LVL217:
 6665               	.LM855:
 6666 2808 812F      		mov r24,r17
 6667 280a 0E94 0000 		call turn
 6668               	.LM856:
 6669 280e 1E34      		cpi r17,lo8(78)
 6670 2810 01F0      		breq .L484
 6671               	.LM857:
 6672 2812 0E94 0000 		call linefollower
 6673               	.LM858:
 6674 2816 82B3      		in r24,50-32
 6675 2818 8027      		eor r24,r16
 6676 281a 82BB      		out 50-32,r24
 6677               	.LM859:
 6678 281c 2196      		adiw r28,1
 6679 281e C931      		cpi r28,25
 6680 2820 D105      		cpc r29,__zero_reg__
 6681 2822 01F4      		brne .L485
 6682               	.L484:
 6683 2824 E0E0      		ldi r30,lo8(path_centre)
 6684 2826 F0E0      		ldi r31,hi8(path_centre)
 6685               	.LM860:
 6686 2828 2CE4      		ldi r18,lo8(76)
 6687               	.LM861:
 6688 282a 92E5      		ldi r25,lo8(82)
 6689               	.L488:
 6690               	.LM862:
 6691 282c 8081      		ld r24,Z
 6692 282e 8C34      		cpi r24,lo8(76)
 6693 2830 01F4      		brne .L486
 6694               	.LM863:
 6695 2832 9083      		st Z,r25
 6696 2834 00C0      		rjmp .L487
 6697               	.L486:
 6698               	.LM864:
 6699 2836 8235      		cpi r24,lo8(82)
 6700 2838 01F4      		brne .L487
 6701               	.LM865:
 6702 283a 2083      		st Z,r18
 6703               	.L487:
 6704 283c 3196      		adiw r30,1
 6705               	.LM866:
 6706 283e 80E0      		ldi r24,hi8(path_centre+25)
 6707 2840 E030      		cpi r30,lo8(path_centre+25)
 6708 2842 F807      		cpc r31,r24
 6709 2844 01F4      		brne .L488
 6710               	.LM867:
 6711 2846 8EE4      		ldi r24,lo8(78)
 6712 2848 0E94 0000 		call turn
 6713               	.LM868:
 6714 284c 0E94 0000 		call inch
 6715 2850 2091 0000 		lds r18,i
 6716 2854 3091 0000 		lds r19,(i)+1
 6717               	.LBB446:
 6718               	.LBB447:
 6719               	.LBB448:
 6720               	.LBB449:
 6721               	.LBB450:
 6722               	.LBB451:
 6723               	.LM869:
 6724 2858 44E5      		ldi r20,lo8(340)
 6725 285a 51E0      		ldi r21,hi8(340)
 6726               	.LBE451:
 6727               	.LBE450:
 6728               	.LBE449:
 6729               	.LBE448:
 6730               	.LBE447:
 6731               	.LBE446:
 6732               	.LBB457:
 6733               	.LBB458:
 6734               	.LBB459:
 6735               	.LBB460:
 6736               	.LM870:
 6737 285c 60E5      		ldi r22,lo8(80)
 6738 285e 00C0      		rjmp .L489
 6739               	.L490:
 6740               	.LBE460:
 6741               	.LBE459:
 6742               	.LBE458:
 6743               	.LBE457:
 6744               	.LM871:
 6745 2860 C098      		cbi 56-32,0
 6746               	.LM872:
 6747 2862 C19A      		sbi 56-32,1
 6748               	.LBB464:
 6749               	.LBB456:
 6750               	.LBB455:
 6751               	.LBB454:
 6752               	.LBB453:
 6753               	.LBB452:
 6754               	.LM873:
 6755 2864 CA01      		movw r24,r20
 6756               	.LVL218:
 6757               	/* #APP */
 6758               	 ;  105 "c:/winavr-20100110/lib/gcc/../../avr/include/util/delay_basic.h" 1
 6759 2866 0197      		1: sbiw r24,1
 6760 2868 01F4      		brne 1b
 6761               	 ;  0 "" 2
 6762               	/* #NOAPP */
 6763               	.LBE452:
 6764               	.LBE453:
 6765               	.LBE454:
 6766               	.LBE455:
 6767               	.LBE456:
 6768               	.LBE464:
 6769               	.LM874:
 6770 286a C09A      		sbi 56-32,0
 6771               	.LM875:
 6772 286c C19A      		sbi 56-32,1
 6773               	.LBB465:
 6774               	.LBB463:
 6775               	.LBB462:
 6776               	.LBB461:
 6777               	.LM876:
 6778 286e 862F      		mov r24,r22
 6779               	.LVL219:
 6780               	/* #APP */
 6781               	 ;  83 "c:/winavr-20100110/lib/gcc/../../avr/include/util/delay_basic.h" 1
 6782 2870 8A95      		1: dec r24
 6783 2872 01F4      		brne 1b
 6784               	 ;  0 "" 2
 6785               	/* #NOAPP */
 6786               	.LBE461:
 6787               	.LBE462:
 6788               	.LBE463:
 6789               	.LBE465:
 6790               	.LM877:
 6791 2874 AB9A      		sbi 53-32,3
 6792 2876 2F5F      		subi r18,lo8(-(1))
 6793 2878 3F4F      		sbci r19,hi8(-(1))
 6794               	.L489:
 6795               	.LM878:
 6796 287a 8FE0      		ldi r24,hi8(4000)
 6797 287c 203A      		cpi r18,lo8(4000)
 6798 287e 3807      		cpc r19,r24
 6799               	.LVL220:
 6800 2880 04F0      		brlt .L490
 6801 2882 3093 0000 		sts (i)+1,r19
 6802 2886 2093 0000 		sts i,r18
 6803               	.LM879:
 6804 288a AB98      		cbi 53-32,3
 6805               	.LM880:
 6806 288c 0E94 0000 		call inchb
 6807               	.LM881:
 6808 2890 85E5      		ldi r24,lo8(85)
 6809 2892 0E94 0000 		call turn
 6810 2896 C050      		subi r28,lo8(-(path_centre-1))
 6811 2898 D040      		sbci r29,hi8(-(path_centre-1))
 6812               	.LVL221:
 6813               	.LM882:
 6814 289a 02E0      		ldi r16,lo8(2)
 6815 289c 00C0      		rjmp .L491
 6816               	.L492:
 6817               	.LM883:
 6818 289e 0E94 0000 		call linefollower
 6819               	.LM884:
 6820 28a2 1881      		ld r17,Y
 6821               	.LVL222:
 6822               	.LM885:
 6823 28a4 0E94 0000 		call inch
 6824               	.LM886:
 6825 28a8 812F      		mov r24,r17
 6826 28aa 0E94 0000 		call turn
 6827               	.LM887:
 6828 28ae 82B3      		in r24,50-32
 6829 28b0 8027      		eor r24,r16
 6830 28b2 82BB      		out 50-32,r24
 6831 28b4 2197      		sbiw r28,1
 6832               	.L491:
 6833               	.LM888:
 6834 28b6 80E0      		ldi r24,hi8(path_centre-1)
 6835 28b8 C030      		cpi r28,lo8(path_centre-1)
 6836 28ba D807      		cpc r29,r24
 6837 28bc 01F4      		brne .L492
 6838 28be 00C0      		rjmp .L520
 6839               	.LVL223:
 6840               	.L483:
 6841               	.LM889:
 6842 28c0 8330      		cpi r24,3
 6843 28c2 9105      		cpc r25,__zero_reg__
 6844 28c4 01F0      		breq .+2
 6845 28c6 00C0      		rjmp .L494
 6846 28c8 C0E0      		ldi r28,lo8(0)
 6847 28ca D0E0      		ldi r29,hi8(0)
 6848               	.LVL224:
 6849               	.LM890:
 6850 28cc 02E0      		ldi r16,lo8(2)
 6851               	.LVL225:
 6852               	.L496:
 6853               	.LM891:
 6854 28ce FE01      		movw r30,r28
 6855 28d0 E050      		subi r30,lo8(-(path_end_right))
 6856 28d2 F040      		sbci r31,hi8(-(path_end_right))
 6857 28d4 1081      		ld r17,Z
 6858               	.LM892:
 6859 28d6 0E94 0000 		call inch
 6860               	.LVL226:
 6861               	.LM893:
 6862 28da 812F      		mov r24,r17
 6863 28dc 0E94 0000 		call turn
 6864               	.LM894:
 6865 28e0 1E34      		cpi r17,lo8(78)
 6866 28e2 01F0      		breq .L495
 6867               	.LM895:
 6868 28e4 0E94 0000 		call linefollower
 6869               	.LM896:
 6870 28e8 82B3      		in r24,50-32
 6871 28ea 8027      		eor r24,r16
 6872 28ec 82BB      		out 50-32,r24
 6873               	.LM897:
 6874 28ee 2196      		adiw r28,1
 6875 28f0 C931      		cpi r28,25
 6876 28f2 D105      		cpc r29,__zero_reg__
 6877 28f4 01F4      		brne .L496
 6878               	.L495:
 6879 28f6 E0E0      		ldi r30,lo8(path_end_right)
 6880 28f8 F0E0      		ldi r31,hi8(path_end_right)
 6881               	.LM898:
 6882 28fa 2CE4      		ldi r18,lo8(76)
 6883               	.LM899:
 6884 28fc 92E5      		ldi r25,lo8(82)
 6885               	.L499:
 6886               	.LM900:
 6887 28fe 8081      		ld r24,Z
 6888 2900 8C34      		cpi r24,lo8(76)
 6889 2902 01F4      		brne .L497
 6890               	.LM901:
 6891 2904 9083      		st Z,r25
 6892 2906 00C0      		rjmp .L498
 6893               	.L497:
 6894               	.LM902:
 6895 2908 8235      		cpi r24,lo8(82)
 6896 290a 01F4      		brne .L498
 6897               	.LM903:
 6898 290c 2083      		st Z,r18
 6899               	.L498:
 6900 290e 3196      		adiw r30,1
 6901               	.LM904:
 6902 2910 80E0      		ldi r24,hi8(path_end_right+25)
 6903 2912 E030      		cpi r30,lo8(path_end_right+25)
 6904 2914 F807      		cpc r31,r24
 6905 2916 01F4      		brne .L499
 6906               	.LM905:
 6907 2918 8EE4      		ldi r24,lo8(78)
 6908 291a 0E94 0000 		call turn
 6909               	.LM906:
 6910 291e 0E94 0000 		call inch
 6911 2922 2091 0000 		lds r18,i
 6912 2926 3091 0000 		lds r19,(i)+1
 6913               	.LBB466:
 6914               	.LBB467:
 6915               	.LBB468:
 6916               	.LBB469:
 6917               	.LBB470:
 6918               	.LBB471:
 6919               	.LM907:
 6920 292a 44E5      		ldi r20,lo8(340)
 6921 292c 51E0      		ldi r21,hi8(340)
 6922               	.LBE471:
 6923               	.LBE470:
 6924               	.LBE469:
 6925               	.LBE468:
 6926               	.LBE467:
 6927               	.LBE466:
 6928               	.LBB477:
 6929               	.LBB478:
 6930               	.LBB479:
 6931               	.LBB480:
 6932               	.LM908:
 6933 292e 60E5      		ldi r22,lo8(80)
 6934 2930 00C0      		rjmp .L500
 6935               	.L501:
 6936               	.LBE480:
 6937               	.LBE479:
 6938               	.LBE478:
 6939               	.LBE477:
 6940               	.LM909:
 6941 2932 C098      		cbi 56-32,0
 6942               	.LM910:
 6943 2934 C19A      		sbi 56-32,1
 6944               	.LBB484:
 6945               	.LBB476:
 6946               	.LBB475:
 6947               	.LBB474:
 6948               	.LBB473:
 6949               	.LBB472:
 6950               	.LM911:
 6951 2936 CA01      		movw r24,r20
 6952               	.LVL227:
 6953               	/* #APP */
 6954               	 ;  105 "c:/winavr-20100110/lib/gcc/../../avr/include/util/delay_basic.h" 1
 6955 2938 0197      		1: sbiw r24,1
 6956 293a 01F4      		brne 1b
 6957               	 ;  0 "" 2
 6958               	/* #NOAPP */
 6959               	.LBE472:
 6960               	.LBE473:
 6961               	.LBE474:
 6962               	.LBE475:
 6963               	.LBE476:
 6964               	.LBE484:
 6965               	.LM912:
 6966 293c C09A      		sbi 56-32,0
 6967               	.LM913:
 6968 293e C19A      		sbi 56-32,1
 6969               	.LBB485:
 6970               	.LBB483:
 6971               	.LBB482:
 6972               	.LBB481:
 6973               	.LM914:
 6974 2940 862F      		mov r24,r22
 6975               	.LVL228:
 6976               	/* #APP */
 6977               	 ;  83 "c:/winavr-20100110/lib/gcc/../../avr/include/util/delay_basic.h" 1
 6978 2942 8A95      		1: dec r24
 6979 2944 01F4      		brne 1b
 6980               	 ;  0 "" 2
 6981               	/* #NOAPP */
 6982               	.LBE481:
 6983               	.LBE482:
 6984               	.LBE483:
 6985               	.LBE485:
 6986               	.LM915:
 6987 2946 AB9A      		sbi 53-32,3
 6988 2948 2F5F      		subi r18,lo8(-(1))
 6989 294a 3F4F      		sbci r19,hi8(-(1))
 6990               	.L500:
 6991               	.LM916:
 6992 294c 8FE0      		ldi r24,hi8(4000)
 6993 294e 203A      		cpi r18,lo8(4000)
 6994 2950 3807      		cpc r19,r24
 6995               	.LVL229:
 6996 2952 04F0      		brlt .L501
 6997 2954 3093 0000 		sts (i)+1,r19
 6998 2958 2093 0000 		sts i,r18
 6999               	.LM917:
 7000 295c AB98      		cbi 53-32,3
 7001               	.LM918:
 7002 295e 0E94 0000 		call inchb
 7003               	.LM919:
 7004 2962 85E5      		ldi r24,lo8(85)
 7005 2964 0E94 0000 		call turn
 7006 2968 C050      		subi r28,lo8(-(path_end_right-1))
 7007 296a D040      		sbci r29,hi8(-(path_end_right-1))
 7008               	.LVL230:
 7009               	.LM920:
 7010 296c 02E0      		ldi r16,lo8(2)
 7011 296e 00C0      		rjmp .L502
 7012               	.L503:
 7013               	.LM921:
 7014 2970 0E94 0000 		call linefollower
 7015               	.LM922:
 7016 2974 1881      		ld r17,Y
 7017               	.LVL231:
 7018               	.LM923:
 7019 2976 0E94 0000 		call inch
 7020               	.LM924:
 7021 297a 812F      		mov r24,r17
 7022 297c 0E94 0000 		call turn
 7023               	.LM925:
 7024 2980 82B3      		in r24,50-32
 7025 2982 8027      		eor r24,r16
 7026 2984 82BB      		out 50-32,r24
 7027 2986 2197      		sbiw r28,1
 7028               	.L502:
 7029               	.LM926:
 7030 2988 80E0      		ldi r24,hi8(path_end_right-1)
 7031 298a C030      		cpi r28,lo8(path_end_right-1)
 7032 298c D807      		cpc r29,r24
 7033 298e 01F4      		brne .L503
 7034 2990 00C0      		rjmp .L520
 7035               	.LVL232:
 7036               	.L494:
 7037               	.LM927:
 7038 2992 0197      		sbiw r24,1
 7039 2994 01F0      		breq .+2
 7040 2996 00C0      		rjmp .L513
 7041 2998 C0E0      		ldi r28,lo8(0)
 7042 299a D0E0      		ldi r29,hi8(0)
 7043               	.LVL233:
 7044               	.LM928:
 7045 299c 02E0      		ldi r16,lo8(2)
 7046               	.LVL234:
 7047               	.L505:
 7048               	.LM929:
 7049 299e FE01      		movw r30,r28
 7050 29a0 E050      		subi r30,lo8(-(path_end_left))
 7051 29a2 F040      		sbci r31,hi8(-(path_end_left))
 7052 29a4 1081      		ld r17,Z
 7053               	.LM930:
 7054 29a6 0E94 0000 		call inch
 7055               	.LVL235:
 7056               	.LM931:
 7057 29aa 812F      		mov r24,r17
 7058 29ac 0E94 0000 		call turn
 7059               	.LM932:
 7060 29b0 1E34      		cpi r17,lo8(78)
 7061 29b2 01F0      		breq .L504
 7062               	.LM933:
 7063 29b4 0E94 0000 		call linefollower
 7064               	.LM934:
 7065 29b8 82B3      		in r24,50-32
 7066 29ba 8027      		eor r24,r16
 7067 29bc 82BB      		out 50-32,r24
 7068               	.LM935:
 7069 29be 2196      		adiw r28,1
 7070 29c0 C931      		cpi r28,25
 7071 29c2 D105      		cpc r29,__zero_reg__
 7072 29c4 01F4      		brne .L505
 7073               	.L504:
 7074 29c6 E0E0      		ldi r30,lo8(path_end_left)
 7075 29c8 F0E0      		ldi r31,hi8(path_end_left)
 7076               	.LM936:
 7077 29ca 2CE4      		ldi r18,lo8(76)
 7078               	.LM937:
 7079 29cc 92E5      		ldi r25,lo8(82)
 7080               	.L508:
 7081               	.LM938:
 7082 29ce 8081      		ld r24,Z
 7083 29d0 8C34      		cpi r24,lo8(76)
 7084 29d2 01F4      		brne .L506
 7085               	.LM939:
 7086 29d4 9083      		st Z,r25
 7087 29d6 00C0      		rjmp .L507
 7088               	.L506:
 7089               	.LM940:
 7090 29d8 8235      		cpi r24,lo8(82)
 7091 29da 01F4      		brne .L507
 7092               	.LM941:
 7093 29dc 2083      		st Z,r18
 7094               	.L507:
 7095 29de 3196      		adiw r30,1
 7096               	.LM942:
 7097 29e0 80E0      		ldi r24,hi8(path_end_left+25)
 7098 29e2 E030      		cpi r30,lo8(path_end_left+25)
 7099 29e4 F807      		cpc r31,r24
 7100 29e6 01F4      		brne .L508
 7101               	.LM943:
 7102 29e8 8EE4      		ldi r24,lo8(78)
 7103 29ea 0E94 0000 		call turn
 7104               	.LM944:
 7105 29ee 0E94 0000 		call inch
 7106 29f2 2091 0000 		lds r18,i
 7107 29f6 3091 0000 		lds r19,(i)+1
 7108               	.LBB486:
 7109               	.LBB487:
 7110               	.LBB488:
 7111               	.LBB489:
 7112               	.LBB490:
 7113               	.LBB491:
 7114               	.LM945:
 7115 29fa 44E5      		ldi r20,lo8(340)
 7116 29fc 51E0      		ldi r21,hi8(340)
 7117               	.LBE491:
 7118               	.LBE490:
 7119               	.LBE489:
 7120               	.LBE488:
 7121               	.LBE487:
 7122               	.LBE486:
 7123               	.LBB497:
 7124               	.LBB498:
 7125               	.LBB499:
 7126               	.LBB500:
 7127               	.LM946:
 7128 29fe 60E5      		ldi r22,lo8(80)
 7129 2a00 00C0      		rjmp .L509
 7130               	.L510:
 7131               	.LBE500:
 7132               	.LBE499:
 7133               	.LBE498:
 7134               	.LBE497:
 7135               	.LM947:
 7136 2a02 C098      		cbi 56-32,0
 7137               	.LM948:
 7138 2a04 C19A      		sbi 56-32,1
 7139               	.LBB504:
 7140               	.LBB496:
 7141               	.LBB495:
 7142               	.LBB494:
 7143               	.LBB493:
 7144               	.LBB492:
 7145               	.LM949:
 7146 2a06 CA01      		movw r24,r20
 7147               	.LVL236:
 7148               	/* #APP */
 7149               	 ;  105 "c:/winavr-20100110/lib/gcc/../../avr/include/util/delay_basic.h" 1
 7150 2a08 0197      		1: sbiw r24,1
 7151 2a0a 01F4      		brne 1b
 7152               	 ;  0 "" 2
 7153               	/* #NOAPP */
 7154               	.LBE492:
 7155               	.LBE493:
 7156               	.LBE494:
 7157               	.LBE495:
 7158               	.LBE496:
 7159               	.LBE504:
 7160               	.LM950:
 7161 2a0c C09A      		sbi 56-32,0
 7162               	.LM951:
 7163 2a0e C19A      		sbi 56-32,1
 7164               	.LBB505:
 7165               	.LBB503:
 7166               	.LBB502:
 7167               	.LBB501:
 7168               	.LM952:
 7169 2a10 862F      		mov r24,r22
 7170               	.LVL237:
 7171               	/* #APP */
 7172               	 ;  83 "c:/winavr-20100110/lib/gcc/../../avr/include/util/delay_basic.h" 1
 7173 2a12 8A95      		1: dec r24
 7174 2a14 01F4      		brne 1b
 7175               	 ;  0 "" 2
 7176               	/* #NOAPP */
 7177               	.LBE501:
 7178               	.LBE502:
 7179               	.LBE503:
 7180               	.LBE505:
 7181               	.LM953:
 7182 2a16 AB9A      		sbi 53-32,3
 7183 2a18 2F5F      		subi r18,lo8(-(1))
 7184 2a1a 3F4F      		sbci r19,hi8(-(1))
 7185               	.L509:
 7186               	.LM954:
 7187 2a1c 8FE0      		ldi r24,hi8(4000)
 7188 2a1e 203A      		cpi r18,lo8(4000)
 7189 2a20 3807      		cpc r19,r24
 7190               	.LVL238:
 7191 2a22 04F0      		brlt .L510
 7192 2a24 3093 0000 		sts (i)+1,r19
 7193 2a28 2093 0000 		sts i,r18
 7194               	.LM955:
 7195 2a2c AB98      		cbi 53-32,3
 7196               	.LM956:
 7197 2a2e 0E94 0000 		call inchb
 7198               	.LM957:
 7199 2a32 85E5      		ldi r24,lo8(85)
 7200 2a34 0E94 0000 		call turn
 7201 2a38 C050      		subi r28,lo8(-(path_end_left-1))
 7202 2a3a D040      		sbci r29,hi8(-(path_end_left-1))
 7203               	.LVL239:
 7204               	.LM958:
 7205 2a3c 02E0      		ldi r16,lo8(2)
 7206 2a3e 00C0      		rjmp .L511
 7207               	.L512:
 7208               	.LM959:
 7209 2a40 0E94 0000 		call linefollower
 7210               	.LM960:
 7211 2a44 1881      		ld r17,Y
 7212               	.LVL240:
 7213               	.LM961:
 7214 2a46 0E94 0000 		call inch
 7215               	.LM962:
 7216 2a4a 812F      		mov r24,r17
 7217 2a4c 0E94 0000 		call turn
 7218               	.LM963:
 7219 2a50 82B3      		in r24,50-32
 7220 2a52 8027      		eor r24,r16
 7221 2a54 82BB      		out 50-32,r24
 7222 2a56 2197      		sbiw r28,1
 7223               	.L511:
 7224               	.LM964:
 7225 2a58 80E0      		ldi r24,hi8(path_end_left-1)
 7226 2a5a C030      		cpi r28,lo8(path_end_left-1)
 7227 2a5c D807      		cpc r29,r24
 7228 2a5e 01F4      		brne .L512
 7229               	.L520:
 7230               	.LM965:
 7231 2a60 8EE4      		ldi r24,lo8(78)
 7232 2a62 0E94 0000 		call turn
 7233               	.LVL241:
 7234               	.L513:
 7235               	/* epilogue start */
 7236               	.LM966:
 7237 2a66 DF91      		pop r29
 7238 2a68 CF91      		pop r28
 7239 2a6a 1F91      		pop r17
 7240               	.LVL242:
 7241 2a6c 0F91      		pop r16
 7242 2a6e 0895      		ret
 7243               	.LFE35:
 7245               		.data
 7246               	.LC0:
 7247 0000 423A 00   		.string	"B:"
 7248               	.LC1:
 7249 0003 543A 00   		.string	"T:"
 7250               	.LC2:
 7251 0006 663A 00   		.string	"f:"
 7252               	.LC3:
 7253 0009 783A 00   		.string	"x:"
 7254               	.LC4:
 7255 000c 793A 00   		.string	"y:"
 7256               	.LC5:
 7257 000f 6E3A 00   		.string	"n:"
 7258               		.text
 7259               	.global	main
 7261               	main:
 7262               	.LFB37:
 7263               	.LM967:
 7264 2a70 1F93      		push r17
 7265               	/* prologue: function */
 7266               	/* frame size = 0 */
 7267               	.LM968:
 7268 2a72 1ABA      		out 58-32,__zero_reg__
 7269               	.LM969:
 7270 2a74 8FEF      		ldi r24,lo8(-1)
 7271 2a76 8BBB      		out 59-32,r24
 7272               	.LM970:
 7273 2a78 81B3      		in r24,49-32
 7274 2a7a 8063      		ori r24,lo8(48)
 7275 2a7c 81BB      		out 49-32,r24
 7276               	.LM971:
 7277 2a7e 81B3      		in r24,49-32
 7278 2a80 806C      		ori r24,lo8(-64)
 7279 2a82 81BB      		out 49-32,r24
 7280               	.LM972:
 7281 2a84 949A      		sbi 50-32,4
 7282               	.LM973:
 7283 2a86 9598      		cbi 50-32,5
 7284               	.LM974:
 7285 2a88 969A      		sbi 50-32,6
 7286               	.LM975:
 7287 2a8a 9798      		cbi 50-32,7
 7288               	.LM976:
 7289 2a8c 87B3      		in r24,55-32
 7290 2a8e 8360      		ori r24,lo8(3)
 7291 2a90 87BB      		out 55-32,r24
 7292               	.LM977:
 7293 2a92 A39A      		sbi 52-32,3
 7294               	.LM978:
 7295 2a94 C59A      		sbi 56-32,5
 7296               	.LM979:
 7297 2a96 0E94 0000 		call lcd_init
 7298               	.LM980:
 7299 2a9a A99A      		sbi 53-32,1
 7300               	.LM981:
 7301 2a9c 80E3      		ldi r24,lo8(48)
 7302 2a9e 0E94 0000 		call lcd_gotoxy1
 7303               	.LM982:
 7304 2aa2 0E94 0000 		call initmatrix
 7305               	.L522:
 7306               	.LBB506:
 7307               	.LM983:
 7308 2aa6 0E94 0000 		call timer_init
 7309               	.LM984:
 7310 2aaa 0E94 0000 		call linefollower
 7311               	.LM985:
 7312 2aae 80E0      		ldi r24,lo8(0)
 7313 2ab0 0E94 0000 		call lcd_gotoxy2
 7314               	.LM986:
 7315 2ab4 80E0      		ldi r24,lo8(.LC0)
 7316 2ab6 90E0      		ldi r25,hi8(.LC0)
 7317 2ab8 0E94 0000 		call lcd_string
 7318               	.LM987:
 7319 2abc 8091 0000 		lds r24,bridgeflag
 7320 2ac0 0E94 0000 		call lcd_showvalue1
 7321               	.LM988:
 7322 2ac4 80E0      		ldi r24,lo8(.LC1)
 7323 2ac6 90E0      		ldi r25,hi8(.LC1)
 7324 2ac8 0E94 0000 		call lcd_string
 7325               	.LM989:
 7326 2acc 8091 0000 		lds r24,bridgetime
 7327 2ad0 0E94 0000 		call lcd_showvalue1
 7328               	.LM990:
 7329 2ad4 80E0      		ldi r24,lo8(.LC2)
 7330 2ad6 90E0      		ldi r25,hi8(.LC2)
 7331 2ad8 0E94 0000 		call lcd_string
 7332               	.LM991:
 7333 2adc 8091 0000 		lds r24,f2
 7334 2ae0 0E94 0000 		call lcd_showvalue1
 7335               	.LM992:
 7336 2ae4 AB98      		cbi 53-32,3
 7337               	.LM993:
 7338 2ae6 0E94 0000 		call updatemaze
 7339               	.LM994:
 7340 2aea 0E94 0000 		call decidemaze
 7341 2aee 182F      		mov r17,r24
 7342               	.LVL243:
 7343               	.LM995:
 7344 2af0 0E94 0000 		call mazestore
 7345               	.LM996:
 7346 2af4 80E0      		ldi r24,lo8(0)
 7347 2af6 0E94 0000 		call lcd_gotoxy1
 7348               	.LM997:
 7349 2afa 80E0      		ldi r24,lo8(.LC3)
 7350 2afc 90E0      		ldi r25,hi8(.LC3)
 7351 2afe 0E94 0000 		call lcd_string
 7352               	.LM998:
 7353 2b02 8091 0000 		lds r24,currx
 7354 2b06 0E94 0000 		call lcd_showvalue1
 7355               	.LM999:
 7356 2b0a 80E0      		ldi r24,lo8(.LC4)
 7357 2b0c 90E0      		ldi r25,hi8(.LC4)
 7358 2b0e 0E94 0000 		call lcd_string
 7359               	.LM1000:
 7360 2b12 8091 0000 		lds r24,curry
 7361 2b16 0E94 0000 		call lcd_showvalue1
 7362               	.LM1001:
 7363 2b1a 80E0      		ldi r24,lo8(.LC5)
 7364 2b1c 90E0      		ldi r25,hi8(.LC5)
 7365 2b1e 0E94 0000 		call lcd_string
 7366               	.LM1002:
 7367 2b22 E091 0000 		lds r30,currx
 7368 2b26 F091 0000 		lds r31,(currx)+1
 7369 2b2a 43E0      		ldi r20,3
 7370 2b2c EE0F      	1:	lsl r30
 7371 2b2e FF1F      		rol r31
 7372 2b30 4A95      		dec r20
 7373 2b32 01F4      		brne 1b
 7374 2b34 8091 0000 		lds r24,curry
 7375 2b38 9091 0000 		lds r25,(curry)+1
 7376 2b3c E80F      		add r30,r24
 7377 2b3e F91F      		adc r31,r25
 7378 2b40 33E0      		ldi r19,3
 7379 2b42 EE0F      	1:	lsl r30
 7380 2b44 FF1F      		rol r31
 7381 2b46 3A95      		dec r19
 7382 2b48 01F4      		brne 1b
 7383 2b4a E050      		subi r30,lo8(-(a))
 7384 2b4c F040      		sbci r31,hi8(-(a))
 7385 2b4e 8081      		ld r24,Z
 7386 2b50 0E94 0000 		call lcd_showvalue
 7387               	.LM1003:
 7388 2b54 0E94 0000 		call inch
 7389               	.LM1004:
 7390 2b58 812F      		mov r24,r17
 7391 2b5a 0E94 0000 		call turn
 7392               	.LM1005:
 7393 2b5e 1E34      		cpi r17,lo8(78)
 7394 2b60 01F0      		breq .+2
 7395 2b62 00C0      		rjmp .L522
 7396               	.LBE506:
 7397               	.LM1006:
 7398 2b64 81E0      		ldi r24,lo8(1)
 7399 2b66 0E94 0000 		call lcd_cmd
 7400               	.LM1007:
 7401 2b6a 0E94 0000 		call simplify
 7402 2b6e 8FEF      		ldi r24,lo8(-1)
 7403 2b70 9FEF      		ldi r25,hi8(-1)
 7404               	.LVL244:
 7405               	.LBB507:
 7406               	.LBB508:
 7407               	.LBB509:
 7408               	.LBB510:
 7409               	.LM1008:
 7410 2b72 20E9      		ldi r18,lo8(400)
 7411 2b74 31E0      		ldi r19,hi8(400)
 7412               	.L523:
 7413 2b76 F901      		movw r30,r18
 7414               	.LVL245:
 7415               	/* #APP */
 7416               	 ;  105 "c:/winavr-20100110/lib/gcc/../../avr/include/util/delay_basic.h" 1
 7417 2b78 3197      		1: sbiw r30,1
 7418 2b7a 01F4      		brne 1b
 7419               	 ;  0 "" 2
 7420               	/* #NOAPP */
 7421               	.LBE510:
 7422               	.LBE509:
 7423               	.LM1009:
 7424 2b7c 0197      		sbiw r24,1
 7425               	.LM1010:
 7426 2b7e 01F4      		brne .L523
 7427               	.L534:
 7428               	.LBE508:
 7429               	.LBE507:
 7430               	.LM1011:
 7431 2b80 CE9B      		sbis 57-32,6
 7432 2b82 00C0      		rjmp .L524
 7433 2b84 CF99      		sbic 57-32,7
 7434 2b86 00C0      		rjmp .L532
 7435               	.L524:
 7436               	.LM1012:
 7437 2b88 CE99      		sbic 57-32,6
 7438 2b8a 00C0      		rjmp .L526
 7439 2b8c CF99      		sbic 57-32,7
 7440 2b8e 00C0      		rjmp .L532
 7441               	.L526:
 7442               	.LM1013:
 7443 2b90 CE9B      		sbis 57-32,6
 7444 2b92 00C0      		rjmp .L534
 7445 2b94 CF99      		sbic 57-32,7
 7446 2b96 00C0      		rjmp .L534
 7447               	.L532:
 7448               	.LM1014:
 7449 2b98 0E94 0000 		call final_show
 7450               	.LVL246:
 7451 2b9c 00C0      		rjmp .L532
 7452               	.LFE37:
 7454               	.global	__vector_11
 7456               	__vector_11:
 7457               	.LFB39:
 7458               	.LM1015:
 7459 2b9e 1F92      		push __zero_reg__
 7460 2ba0 0F92      		push r0
 7461 2ba2 0FB6      		in r0,__SREG__
 7462 2ba4 0F92      		push r0
 7463 2ba6 1124      		clr __zero_reg__
 7464 2ba8 8F93      		push r24
 7465 2baa 9F93      		push r25
 7466               	/* prologue: Signal */
 7467               	/* frame size = 0 */
 7468               	.LM1016:
 7469 2bac 8091 0000 		lds r24,time
 7470 2bb0 9091 0000 		lds r25,(time)+1
 7471 2bb4 0196      		adiw r24,1
 7472 2bb6 9093 0000 		sts (time)+1,r25
 7473 2bba 8093 0000 		sts time,r24
 7474               	/* epilogue start */
 7475               	.LM1017:
 7476 2bbe 9F91      		pop r25
 7477 2bc0 8F91      		pop r24
 7478 2bc2 0F90      		pop r0
 7479 2bc4 0FBE      		out __SREG__,r0
 7480 2bc6 0F90      		pop r0
 7481 2bc8 1F90      		pop __zero_reg__
 7482 2bca 1895      		reti
 7483               	.LFE39:
 7485               	.global	k
 7486               	.global	k
 7487               		.section .bss
 7490               	k:
 7491 0000 00        		.skip 1,0
 7492               	.global	j
 7493               	.global	j
 7496               	j:
 7497 0001 00        		.skip 1,0
 7498               	.global	save
 7499               	.global	save
 7502               	save:
 7503 0002 00        		.skip 1,0
 7504               	.global	currx
 7505               	.global	currx
 7508               	currx:
 7509 0003 0000      		.skip 2,0
 7510               	.global	curry
 7511               	.global	curry
 7514               	curry:
 7515 0005 0000      		.skip 2,0
 7516               	.global	ori
 7517               		.data
 7520               	ori:
 7521 0012 0100      		.word	1
 7522               	.global	f1
 7523               	.global	f1
 7524               		.section .bss
 7527               	f1:
 7528 0007 0000      		.skip 2,0
 7529               	.global	f2
 7530               	.global	f2
 7533               	f2:
 7534 0009 0000      		.skip 2,0
 7535               	.global	bridge_detect
 7536               	.global	bridge_detect
 7539               	bridge_detect:
 7540 000b 0000      		.skip 2,0
 7541               	.global	no
 7542               	.global	no
 7545               	no:
 7546 000d 0000      		.skip 2,0
 7547               	.global	nodeflag
 7548               	.global	nodeflag
 7551               	nodeflag:
 7552 000f 0000      		.skip 2,0
 7553               	.global	bridgeflag
 7554               	.global	bridgeflag
 7557               	bridgeflag:
 7558 0011 0000      		.skip 2,0
 7559               	.global	pointer
 7560               	.global	pointer
 7563               	pointer:
 7564 0013 0000      		.skip 2,0
 7565               	.global	time
 7566               	.global	time
 7569               	time:
 7570 0015 0000      		.skip 2,0
 7571               	.global	bridgetime
 7572               	.global	bridgetime
 7575               	bridgetime:
 7576 0017 0000      		.skip 2,0
 7577               	.global	maze
 7578               		.data
 7581               	maze:
 7582 0014 0600      		.word	6
 7583 0016 0500      		.word	5
 7584 0018 0400      		.word	4
 7585 001a 0300      		.word	3
 7586 001c 0300      		.word	3
 7587 001e 0400      		.word	4
 7588 0020 0500      		.word	5
 7589 0022 0600      		.word	6
 7590 0024 0500      		.word	5
 7591 0026 0400      		.word	4
 7592 0028 0300      		.word	3
 7593 002a 0200      		.word	2
 7594 002c 0200      		.word	2
 7595 002e 0300      		.word	3
 7596 0030 0400      		.word	4
 7597 0032 0500      		.word	5
 7598 0034 0400      		.word	4
 7599 0036 0300      		.word	3
 7600 0038 0200      		.word	2
 7601 003a 0100      		.word	1
 7602 003c 0100      		.word	1
 7603 003e 0200      		.word	2
 7604 0040 0300      		.word	3
 7605 0042 0400      		.word	4
 7606 0044 0300      		.word	3
 7607 0046 0200      		.word	2
 7608 0048 0100      		.word	1
 7609 004a 0000      		.word	0
 7610 004c 0000      		.word	0
 7611 004e 0100      		.word	1
 7612 0050 0200      		.word	2
 7613 0052 0300      		.word	3
 7614 0054 0300      		.word	3
 7615 0056 0200      		.word	2
 7616 0058 0100      		.word	1
 7617 005a 0000      		.word	0
 7618 005c 0000      		.word	0
 7619 005e 0100      		.word	1
 7620 0060 0200      		.word	2
 7621 0062 0300      		.word	3
 7622 0064 0400      		.word	4
 7623 0066 0300      		.word	3
 7624 0068 0200      		.word	2
 7625 006a 0100      		.word	1
 7626 006c 0100      		.word	1
 7627 006e 0200      		.word	2
 7628 0070 0300      		.word	3
 7629 0072 0400      		.word	4
 7630 0074 0500      		.word	5
 7631 0076 0400      		.word	4
 7632 0078 0300      		.word	3
 7633 007a 0200      		.word	2
 7634 007c 0200      		.word	2
 7635 007e 0300      		.word	3
 7636 0080 0400      		.word	4
 7637 0082 0500      		.word	5
 7638 0084 0600      		.word	6
 7639 0086 0500      		.word	5
 7640 0088 0400      		.word	4
 7641 008a 0300      		.word	3
 7642 008c 0300      		.word	3
 7643 008e 0400      		.word	4
 7644 0090 0500      		.word	5
 7645 0092 0600      		.word	6
 7646               	.global	count
 7647               	.global	count
 7648               		.section .bss
 7651               	count:
 7652 0019 0000      		.skip 2,0
 7653               	.global	ori_m
 7654               		.data
 7657               	ori_m:
 7658 0094 0300      		.word	3
 7659               	.global	x
 7662               	x:
 7663 0096 0800      		.word	8
 7664               	.global	y
 7667               	y:
 7668 0098 0600      		.word	6
 7669               	.global	rec
 7670               	.global	rec
 7671               		.section .bss
 7674               	rec:
 7675 001b 00        		.skip 1,0
 7676               	.global	flag
 7677               	.global	flag
 7680               	flag:
 7681 001c 0000      		.skip 2,0
 7682               		.comm objx,2,1
 7683               		.comm objy,2,1
 7684               		.comm a,512,1
 7685               		.comm test,200,1
 7686               		.comm bridge,600,1
 7687               		.comm path,25,1
 7688               		.comm path_centre,25,1
 7689               		.comm path_end_left,25,1
 7690               		.comm path_end_right,25,1
 7691               		.comm temp0,2,1
 7692               		.comm it,2,1
 7693               		.comm jt,2,1
 7694               		.comm kt,2,1
 7695               		.comm update1,2,1
 7696               		.comm i,2,1
 7697               		.comm step,2,1
 7986               	.Letext0:
DEFINED SYMBOLS
                            *ABS*:00000000 maze.c
C:\Users\Mr\AppData\Local\Temp/ccT98x7f.s:2      *ABS*:0000003f __SREG__
C:\Users\Mr\AppData\Local\Temp/ccT98x7f.s:3      *ABS*:0000003e __SP_H__
C:\Users\Mr\AppData\Local\Temp/ccT98x7f.s:4      *ABS*:0000003d __SP_L__
C:\Users\Mr\AppData\Local\Temp/ccT98x7f.s:5      *ABS*:00000034 __CCP__
C:\Users\Mr\AppData\Local\Temp/ccT98x7f.s:6      *ABS*:00000000 __tmp_reg__
C:\Users\Mr\AppData\Local\Temp/ccT98x7f.s:7      *ABS*:00000001 __zero_reg__
C:\Users\Mr\AppData\Local\Temp/ccT98x7f.s:18     .text:00000000 delay_us
C:\Users\Mr\AppData\Local\Temp/ccT98x7f.s:7490   .bss:00000000 k
C:\Users\Mr\AppData\Local\Temp/ccT98x7f.s:7496   .bss:00000001 j
C:\Users\Mr\AppData\Local\Temp/ccT98x7f.s:50     .text:00000022 delay_ns
C:\Users\Mr\AppData\Local\Temp/ccT98x7f.s:76     .text:0000003c latch
C:\Users\Mr\AppData\Local\Temp/ccT98x7f.s:100    .text:00000050 lcd_cmd
C:\Users\Mr\AppData\Local\Temp/ccT98x7f.s:146    .text:00000082 lcd_char
C:\Users\Mr\AppData\Local\Temp/ccT98x7f.s:183    .text:000000a8 lcd_string
C:\Users\Mr\AppData\Local\Temp/ccT98x7f.s:251    .text:000000fc lcd_showvalue
C:\Users\Mr\AppData\Local\Temp/ccT98x7f.s:320    .text:00000164 lcd_showvalue1
C:\Users\Mr\AppData\Local\Temp/ccT98x7f.s:379    .text:000001c0 lcd_gotoxy1
C:\Users\Mr\AppData\Local\Temp/ccT98x7f.s:396    .text:000001c8 lcd_gotoxy2
C:\Users\Mr\AppData\Local\Temp/ccT98x7f.s:413    .text:000001d0 delay_ms
C:\Users\Mr\AppData\Local\Temp/ccT98x7f.s:452    .text:000001ec lcd_init
C:\Users\Mr\AppData\Local\Temp/ccT98x7f.s:7502   .bss:00000002 save
C:\Users\Mr\AppData\Local\Temp/ccT98x7f.s:494    .text:00000226 lcd_clear
C:\Users\Mr\AppData\Local\Temp/ccT98x7f.s:509    .text:0000022e initmatrix
                            *COM*:00000200 a
C:\Users\Mr\AppData\Local\Temp/ccT98x7f.s:7581   .data:00000014 maze
                            *COM*:00000258 bridge
                            *COM*:000000c8 test
                            *COM*:00000019 path
                            *COM*:00000019 path_centre
                            *COM*:00000019 path_end_left
                            *COM*:00000019 path_end_right
C:\Users\Mr\AppData\Local\Temp/ccT98x7f.s:770    .text:000003b8 updatemaze
C:\Users\Mr\AppData\Local\Temp/ccT98x7f.s:7557   .bss:00000011 bridgeflag
C:\Users\Mr\AppData\Local\Temp/ccT98x7f.s:7533   .bss:00000009 f2
C:\Users\Mr\AppData\Local\Temp/ccT98x7f.s:7520   .data:00000012 ori
C:\Users\Mr\AppData\Local\Temp/ccT98x7f.s:7508   .bss:00000003 currx
C:\Users\Mr\AppData\Local\Temp/ccT98x7f.s:7514   .bss:00000005 curry
C:\Users\Mr\AppData\Local\Temp/ccT98x7f.s:843    .text:0000043c decidemaze
C:\Users\Mr\AppData\Local\Temp/ccT98x7f.s:888    .text:0000047e timer_init
C:\Users\Mr\AppData\Local\Temp/ccT98x7f.s:7569   .bss:00000015 time
C:\Users\Mr\AppData\Local\Temp/ccT98x7f.s:918    .text:00000496 mazestore
C:\Users\Mr\AppData\Local\Temp/ccT98x7f.s:7551   .bss:0000000f nodeflag
C:\Users\Mr\AppData\Local\Temp/ccT98x7f.s:7545   .bss:0000000d no
C:\Users\Mr\AppData\Local\Temp/ccT98x7f.s:2227   .text:00000e6a conventionmatch
                            *COM*:00000002 jt
                            *COM*:00000002 it
C:\Users\Mr\AppData\Local\Temp/ccT98x7f.s:2341   .text:00000f2c turn
C:\Users\Mr\AppData\Local\Temp/ccT98x7f.s:2717   .text:0000108e update
C:\Users\Mr\AppData\Local\Temp/ccT98x7f.s:2789   .text:0000110c decide
C:\Users\Mr\AppData\Local\Temp/ccT98x7f.s:2822   .text:00001138 inch
C:\Users\Mr\AppData\Local\Temp/ccT98x7f.s:2877   .text:0000115c inchb
C:\Users\Mr\AppData\Local\Temp/ccT98x7f.s:2932   .text:00001180 linefollower1
C:\Users\Mr\AppData\Local\Temp/ccT98x7f.s:3078   .text:00001244 near
C:\Users\Mr\AppData\Local\Temp/ccT98x7f.s:3341   .text:000013fc findpath
C:\Users\Mr\AppData\Local\Temp/ccT98x7f.s:7662   .data:00000096 x
C:\Users\Mr\AppData\Local\Temp/ccT98x7f.s:7667   .data:00000098 y
C:\Users\Mr\AppData\Local\Temp/ccT98x7f.s:7657   .data:00000094 ori_m
C:\Users\Mr\AppData\Local\Temp/ccT98x7f.s:7563   .bss:00000013 pointer
C:\Users\Mr\AppData\Local\Temp/ccT98x7f.s:4606   .text:00001ccc simplify
C:\Users\Mr\AppData\Local\Temp/ccT98x7f.s:7651   .bss:00000019 count
                            *COM*:00000002 i
                            *COM*:00000002 update1
C:\Users\Mr\AppData\Local\Temp/ccT98x7f.s:5534   .text:0000235a reach
C:\Users\Mr\AppData\Local\Temp/ccT98x7f.s:6106   .text:000025e8 linefollower
C:\Users\Mr\AppData\Local\Temp/ccT98x7f.s:5592   .text:000023ac final_show
C:\Users\Mr\AppData\Local\Temp/ccT98x7f.s:7674   .bss:0000001b rec
C:\Users\Mr\AppData\Local\Temp/ccT98x7f.s:7680   .bss:0000001c flag
C:\Users\Mr\AppData\Local\Temp/ccT98x7f.s:6635   .text:000027e6 place_obj
C:\Users\Mr\AppData\Local\Temp/ccT98x7f.s:7261   .text:00002a70 main
C:\Users\Mr\AppData\Local\Temp/ccT98x7f.s:7575   .bss:00000017 bridgetime
C:\Users\Mr\AppData\Local\Temp/ccT98x7f.s:7456   .text:00002b9e __vector_11
C:\Users\Mr\AppData\Local\Temp/ccT98x7f.s:7527   .bss:00000007 f1
C:\Users\Mr\AppData\Local\Temp/ccT98x7f.s:7539   .bss:0000000b bridge_detect
                            *COM*:00000002 objx
                            *COM*:00000002 objy
                            *COM*:00000002 temp0
                            *COM*:00000002 kt
                            *COM*:00000002 step

UNDEFINED SYMBOLS
__udivmodqi4
__divmodhi4
__do_copy_data
__do_clear_bss
